	.file	"full.llvm"
	.text
.Ltext_begin:
	.data
	.file	1 "stencil.c"
	.file	2 "./stencil.h"
	.file	3 "local_support.c"
	.file	4 "/home/bachelor/andrew0325/gem5-aladdin/src/aladdin/TestSuite/common/support.c"
	.file	5 "../../common/support.c"
	.file	6 "/home/bachelor/andrew0325/gem5-aladdin/src/aladdin/TestSuite/common/harness.c"
	.file	7 "/home/bachelor/andrew0325/gem5-aladdin/src/aladdin/TestSuite/common//harness.c"
	.file	8 "/home/bachelor/andrew0325/gem5-aladdin/src/aladdin//gem5/dma_interface.c"
	.text
	.globl	stencil
	.align	16, 0x90
	.type	stencil,@function
stencil:                                # @stencil
	.cfi_startproc
.Lfunc_begin0:
	.loc	1 8 0                   # stencil.c:8:0
# BB#0:
	pushq	%rbp
.Ltmp7:
	.cfi_def_cfa_offset 16
	pushq	%r15
.Ltmp8:
	.cfi_def_cfa_offset 24
	pushq	%r14
.Ltmp9:
	.cfi_def_cfa_offset 32
	pushq	%r13
.Ltmp10:
	.cfi_def_cfa_offset 40
	pushq	%r12
.Ltmp11:
	.cfi_def_cfa_offset 48
	pushq	%rbx
.Ltmp12:
	.cfi_def_cfa_offset 56
	subq	$14888, %rsp            # imm = 0x3A28
.Ltmp13:
	.cfi_def_cfa_offset 14944
.Ltmp14:
	.cfi_offset %rbx, -56
.Ltmp15:
	.cfi_offset %r12, -48
.Ltmp16:
	.cfi_offset %r13, -40
.Ltmp17:
	.cfi_offset %r14, -32
.Ltmp18:
	.cfi_offset %r15, -24
.Ltmp19:
	.cfi_offset %rbp, -16
	movabsq	$12345, %rax            # imm = 0x3039
	movabsq	$64, %rcx
	movabsq	$1, %r8
	leaq	.L.str66, %r9
	movabsq	$0, %r10
	leaq	.L.str67, %r11
	leaq	.L.str64, %rbx
	leaq	.L.str65, %r14
	movabsq	$24601, %r15            # imm = 0x6019
	movabsq	$32768, %r12            # imm = 0x8000
	leaq	.L.str62, %r13
	leaq	.L.str63, %rbp
	movq	%rax, 14880(%rsp)       # 8-byte Spill
	movabsq	$5, %rax
	movq	%rax, 14872(%rsp)       # 8-byte Spill
	leaq	.L.str60, %rax
	movq	%rax, 14864(%rsp)       # 8-byte Spill
	leaq	.L.str61, %rax
	movq	%rax, 14856(%rsp)       # 8-byte Spill
	leaq	.L.str58, %rax
	movq	%rax, 14848(%rsp)       # 8-byte Spill
	leaq	.L.str59, %rax
	movq	%rax, 14840(%rsp)       # 8-byte Spill
	movabsq	$4, %rax
	movq	%rax, 14832(%rsp)       # 8-byte Spill
	leaq	.L.str56, %rax
	movq	%rax, 14824(%rsp)       # 8-byte Spill
	leaq	.L.str57, %rax
	movq	%rax, 14816(%rsp)       # 8-byte Spill
	leaq	.L.str54, %rax
	movq	%rax, 14808(%rsp)       # 8-byte Spill
	leaq	.L.str55, %rax
	movq	%rax, 14800(%rsp)       # 8-byte Spill
	movabsq	$3, %rax
	movq	%rax, 14792(%rsp)       # 8-byte Spill
	leaq	.L.str52, %rax
	movq	%rax, 14784(%rsp)       # 8-byte Spill
	leaq	.L.str53, %rax
	movq	%rax, 14776(%rsp)       # 8-byte Spill
	leaq	.L.str50, %rax
	movq	%rax, 14768(%rsp)       # 8-byte Spill
	leaq	.L.str51, %rax
	movq	%rax, 14760(%rsp)       # 8-byte Spill
	movabsq	$2, %rax
	movq	%rax, 14752(%rsp)       # 8-byte Spill
	leaq	.L.str48, %rax
	movq	%rax, 14744(%rsp)       # 8-byte Spill
	leaq	.L.str49, %rax
	movq	%rax, 14736(%rsp)       # 8-byte Spill
	leaq	orig, %rax
	movq	%rax, 14728(%rsp)       # 8-byte Spill
	leaq	.L.str46, %rax
	movq	%rax, 14720(%rsp)       # 8-byte Spill
	leaq	.L.str47, %rax
	movq	%rax, 14712(%rsp)       # 8-byte Spill
	leaq	.L.str44, %rax
	movq	%rax, 14704(%rsp)       # 8-byte Spill
	leaq	.L.str45, %rax
	movq	%rax, 14696(%rsp)       # 8-byte Spill
	movabsq	$8, %rax
	movq	%rax, 14688(%rsp)       # 8-byte Spill
	leaq	dmaLoad, %rax
	movq	%rax, 14680(%rsp)       # 8-byte Spill
	leaq	.L.str42, %rax
	movq	%rax, 14672(%rsp)       # 8-byte Spill
	leaq	.L.str43, %rax
	movq	%rax, 14664(%rsp)       # 8-byte Spill
	movabsq	$11, %rax
	movq	%rax, 14656(%rsp)       # 8-byte Spill
	leaq	.L.str39, %rax
	movq	%rax, 14648(%rsp)       # 8-byte Spill
	leaq	.L.str40, %rax
	movq	%rax, 14640(%rsp)       # 8-byte Spill
	leaq	.L.str41, %rax
	movq	%rax, 14632(%rsp)       # 8-byte Spill
	movabsq	$99, %rax
	movq	%rsi, 14624(%rsp)       # 8-byte Spill
	movl	$1, %esi
	movq	%rax, 14616(%rsp)       # 8-byte Spill
	movabsq	$19134, %rax            # imm = 0x4ABE
	movq	%rax, 14608(%rsp)       # 8-byte Spill
	leaq	.L.str37, %rax
	movq	%rax, 14600(%rsp)       # 8-byte Spill
	leaq	.L.str38, %rax
	movq	%rax, 14592(%rsp)       # 8-byte Spill
	leaq	.L.str35, %rax
	movq	%rax, 14584(%rsp)       # 8-byte Spill
	leaq	.L.str36, %rax
	movq	%rax, 14576(%rsp)       # 8-byte Spill
	leaq	.L.str32, %rax
	movq	%rax, 14568(%rsp)       # 8-byte Spill
	leaq	.L.str33, %rax
	movq	%rax, 14560(%rsp)       # 8-byte Spill
	leaq	.L.str34, %rax
	movq	%rax, 14552(%rsp)       # 8-byte Spill
	movabsq	$44, %rax
	movq	%rax, 14544(%rsp)       # 8-byte Spill
	leaq	.L.str30, %rax
	movq	%rax, 14536(%rsp)       # 8-byte Spill
	leaq	.L.str31, %rax
	movq	%rax, 14528(%rsp)       # 8-byte Spill
	leaq	.L.str28, %rax
	movq	%rax, 14520(%rsp)       # 8-byte Spill
	leaq	.L.str29, %rax
	movq	%rax, 14512(%rsp)       # 8-byte Spill
	leaq	.L.str26, %rax
	movq	%rax, 14504(%rsp)       # 8-byte Spill
	leaq	.L.str27, %rax
	movq	%rax, 14496(%rsp)       # 8-byte Spill
	leaq	.L.str23, %rax
	movq	%rax, 14488(%rsp)       # 8-byte Spill
	leaq	.L.str24, %rax
	movq	%rax, 14480(%rsp)       # 8-byte Spill
	leaq	.L.str25, %rax
	movq	%rax, 14472(%rsp)       # 8-byte Spill
	movabsq	$29, %rax
	movq	%rax, 14464(%rsp)       # 8-byte Spill
	leaq	.L.str21, %rax
	movq	%rax, 14456(%rsp)       # 8-byte Spill
	leaq	.L.str22, %rax
	movq	%rax, 14448(%rsp)       # 8-byte Spill
	leaq	.L.str19, %rax
	movq	%rax, 14440(%rsp)       # 8-byte Spill
	leaq	.L.str20, %rax
	movq	%rax, 14432(%rsp)       # 8-byte Spill
	leaq	.L.str16, %rax
	movq	%rax, 14424(%rsp)       # 8-byte Spill
	leaq	.L.str17, %rax
	movq	%rax, 14416(%rsp)       # 8-byte Spill
	leaq	.L.str18, %rax
	movq	%rax, 14408(%rsp)       # 8-byte Spill
	leaq	.L.str14, %rax
	movq	%rax, 14400(%rsp)       # 8-byte Spill
	leaq	.L.str15, %rax
	movq	%rax, 14392(%rsp)       # 8-byte Spill
	leaq	.L.str12, %rax
	movq	%rax, 14384(%rsp)       # 8-byte Spill
	leaq	.L.str13, %rax
	movq	%rax, 14376(%rsp)       # 8-byte Spill
	leaq	.L.str10, %rax
	movq	%rax, 14368(%rsp)       # 8-byte Spill
	leaq	.L.str11, %rax
	movq	%rax, 14360(%rsp)       # 8-byte Spill
	leaq	.L.str7, %rax
	movq	%rax, 14352(%rsp)       # 8-byte Spill
	leaq	.L.str8, %rax
	movq	%rax, 14344(%rsp)       # 8-byte Spill
	leaq	.L.str9, %rax
	movq	%rax, 14336(%rsp)       # 8-byte Spill
	leaq	.L.str5, %rax
	movq	%rax, 14328(%rsp)       # 8-byte Spill
	leaq	.L.str6, %rax
	movq	%rax, 14320(%rsp)       # 8-byte Spill
	leaq	.L.str3, %rax
	movq	%rax, 14312(%rsp)       # 8-byte Spill
	leaq	.L.str4, %rax
	movq	%rax, 14304(%rsp)       # 8-byte Spill
	leaq	.L.str, %rax
	movq	%rax, 14296(%rsp)       # 8-byte Spill
	leaq	.L.str1, %rax
	movq	%rax, 14288(%rsp)       # 8-byte Spill
	leaq	.L.str2, %rax
	#DEBUG_VALUE: stencil:args <- RDI
	#DEBUG_VALUE: stencil:enable <- [RSP+14624]
	#DEBUG_VALUE: stencil:avail <- RDX
	.loc	1 11 0 prologue_end     # stencil.c:11:0
.Ltmp20:
	movq	%rax, 14280(%rsp)       # 8-byte Spill
	movq	14656(%rsp), %rax       # 8-byte Reload
	movq	%rdi, 14272(%rsp)       # 8-byte Spill
.Ltmp21:
	#DEBUG_VALUE: stencil:args <- [RSP+14272]
	movq	%rax, %rdi
	movq	14296(%rsp), %rax       # 8-byte Reload
	movl	%esi, 14268(%rsp)       # 4-byte Spill
	movq	%rax, %rsi
	movq	14288(%rsp), %rax       # 8-byte Reload
	movq	%rdx, 14256(%rsp)       # 8-byte Spill
.Ltmp22:
	#DEBUG_VALUE: stencil:avail <- [RSP+14256]
	movq	%rax, %rdx
	movq	14280(%rsp), %rax       # 8-byte Reload
	movq	%rcx, 14248(%rsp)       # 8-byte Spill
	movq	%rax, %rcx
	movq	14544(%rsp), %rax       # 8-byte Reload
	movq	%r8, 14240(%rsp)        # 8-byte Spill
	movq	%rax, %r8
	movl	14268(%rsp), %eax       # 4-byte Reload
	movq	%r9, 14232(%rsp)        # 8-byte Spill
	movl	%eax, %r9d
	movl	$1, (%rsp)
	movq	%r13, 14224(%rsp)       # 8-byte Spill
	movq	%rbp, 14216(%rsp)       # 8-byte Spill
	movq	%r12, 14208(%rsp)       # 8-byte Spill
	movq	%r15, 14200(%rsp)       # 8-byte Spill
	movq	%r14, 14192(%rsp)       # 8-byte Spill
	movq	%rbx, 14184(%rsp)       # 8-byte Spill
	movq	%r10, 14176(%rsp)       # 8-byte Spill
	movq	%r11, 14168(%rsp)       # 8-byte Spill
	callq	trace_logger_log0
	movq	14240(%rsp), %rdi       # 8-byte Reload
	movq	14248(%rsp), %rsi       # 8-byte Reload
	movq	14272(%rsp), %rdx       # 8-byte Reload
	movq	14240(%rsp), %rcx       # 8-byte Reload
	movq	14312(%rsp), %r8        # 8-byte Reload
	movq	14176(%rsp), %r9        # 8-byte Reload
	movq	14304(%rsp), %r10       # 8-byte Reload
	movq	%r10, (%rsp)
	callq	trace_logger_log_int
	movq	14272(%rsp), %rcx       # 8-byte Reload
	movq	14608(%rsp), %rdi       # 8-byte Reload
	movq	14248(%rsp), %rsi       # 8-byte Reload
	movq	%rcx, %rdx
	movq	14240(%rsp), %r8        # 8-byte Reload
	movq	%rcx, 14160(%rsp)       # 8-byte Spill
	movq	%r8, %rcx
	movq	14328(%rsp), %r8        # 8-byte Reload
	movq	14176(%rsp), %r9        # 8-byte Reload
	movq	14320(%rsp), %r10       # 8-byte Reload
	movq	%r10, (%rsp)
	callq	trace_logger_log_int
	movq	14656(%rsp), %rdi       # 8-byte Reload
	movq	14352(%rsp), %rsi       # 8-byte Reload
	movq	14344(%rsp), %rdx       # 8-byte Reload
	movq	14336(%rsp), %rcx       # 8-byte Reload
	movq	14464(%rsp), %r8        # 8-byte Reload
	movl	14268(%rsp), %r9d       # 4-byte Reload
	movl	$1, (%rsp)
	callq	trace_logger_log0
	movq	14752(%rsp), %rdi       # 8-byte Reload
	movq	14248(%rsp), %rsi       # 8-byte Reload
	movq	14240(%rsp), %rdx       # 8-byte Reload
	movq	14176(%rsp), %rcx       # 8-byte Reload
	movq	14368(%rsp), %r8        # 8-byte Reload
	movq	14176(%rsp), %r9        # 8-byte Reload
	movq	14360(%rsp), %r10       # 8-byte Reload
	movq	%r10, (%rsp)
	callq	trace_logger_log_int
	movq	14240(%rsp), %rdi       # 8-byte Reload
	movq	14248(%rsp), %rsi       # 8-byte Reload
	movq	14624(%rsp), %rdx       # 8-byte Reload
	movq	14240(%rsp), %rcx       # 8-byte Reload
	movq	14384(%rsp), %r8        # 8-byte Reload
	movq	14176(%rsp), %r9        # 8-byte Reload
	movq	14376(%rsp), %r10       # 8-byte Reload
	movq	%r10, (%rsp)
	callq	trace_logger_log_int
	movq	14624(%rsp), %rcx       # 8-byte Reload
	addq	$4, %rcx
	movq	14608(%rsp), %rdi       # 8-byte Reload
	movq	14248(%rsp), %rsi       # 8-byte Reload
	movq	%rcx, %rdx
	movq	14240(%rsp), %r8        # 8-byte Reload
	movq	%rcx, 14152(%rsp)       # 8-byte Spill
	movq	%r8, %rcx
	movq	14400(%rsp), %r8        # 8-byte Reload
	movq	14176(%rsp), %r9        # 8-byte Reload
	movq	14392(%rsp), %r10       # 8-byte Reload
	movq	%r10, (%rsp)
	callq	trace_logger_log_int
	movq	14656(%rsp), %rdi       # 8-byte Reload
	movq	14424(%rsp), %rsi       # 8-byte Reload
	movq	14416(%rsp), %rdx       # 8-byte Reload
	movq	14408(%rsp), %rcx       # 8-byte Reload
	movq	14544(%rsp), %r8        # 8-byte Reload
	movl	14268(%rsp), %r9d       # 4-byte Reload
	movl	$1, (%rsp)
	callq	trace_logger_log0
	movq	14240(%rsp), %rdi       # 8-byte Reload
	movq	14248(%rsp), %rsi       # 8-byte Reload
	movq	14152(%rsp), %rdx       # 8-byte Reload
	movq	14240(%rsp), %rcx       # 8-byte Reload
	movq	14440(%rsp), %r8        # 8-byte Reload
	movq	14176(%rsp), %r9        # 8-byte Reload
	movq	14432(%rsp), %r10       # 8-byte Reload
	movq	%r10, (%rsp)
	callq	trace_logger_log_int
	movq	14152(%rsp), %rcx       # 8-byte Reload
	movq	14608(%rsp), %rdi       # 8-byte Reload
	movq	14248(%rsp), %rsi       # 8-byte Reload
	movq	%rcx, %rdx
	movq	14240(%rsp), %r8        # 8-byte Reload
	movq	%rcx, 14144(%rsp)       # 8-byte Spill
	movq	%r8, %rcx
	movq	14456(%rsp), %r8        # 8-byte Reload
	movq	14176(%rsp), %r9        # 8-byte Reload
	movq	14448(%rsp), %r10       # 8-byte Reload
	movq	%r10, (%rsp)
	callq	trace_logger_log_int
	movq	14656(%rsp), %rdi       # 8-byte Reload
	movq	14488(%rsp), %rsi       # 8-byte Reload
	movq	14480(%rsp), %rdx       # 8-byte Reload
	movq	14472(%rsp), %rcx       # 8-byte Reload
	movq	14464(%rsp), %r8        # 8-byte Reload
	movl	14268(%rsp), %r9d       # 4-byte Reload
	movl	$1, (%rsp)
	callq	trace_logger_log0
	movq	14752(%rsp), %rdi       # 8-byte Reload
	movq	14248(%rsp), %rsi       # 8-byte Reload
	movq	14240(%rsp), %rdx       # 8-byte Reload
	movq	14176(%rsp), %rcx       # 8-byte Reload
	movq	14504(%rsp), %r8        # 8-byte Reload
	movq	14176(%rsp), %r9        # 8-byte Reload
	movq	14496(%rsp), %r10       # 8-byte Reload
	movq	%r10, (%rsp)
	callq	trace_logger_log_int
	movq	14240(%rsp), %rdi       # 8-byte Reload
	movq	14248(%rsp), %rsi       # 8-byte Reload
	movq	14256(%rsp), %rdx       # 8-byte Reload
	movq	14240(%rsp), %rcx       # 8-byte Reload
	movq	14520(%rsp), %r8        # 8-byte Reload
	movq	14176(%rsp), %r9        # 8-byte Reload
	movq	14512(%rsp), %r10       # 8-byte Reload
	movq	%r10, (%rsp)
	callq	trace_logger_log_int
	movq	14256(%rsp), %rcx       # 8-byte Reload
	addq	$4, %rcx
	movq	14608(%rsp), %rdi       # 8-byte Reload
	movq	14248(%rsp), %rsi       # 8-byte Reload
	movq	%rcx, %rdx
	movq	14240(%rsp), %r8        # 8-byte Reload
	movq	%rcx, 14136(%rsp)       # 8-byte Spill
	movq	%r8, %rcx
	movq	14536(%rsp), %r8        # 8-byte Reload
	movq	14176(%rsp), %r9        # 8-byte Reload
	movq	14528(%rsp), %r10       # 8-byte Reload
	movq	%r10, (%rsp)
	callq	trace_logger_log_int
	movq	14656(%rsp), %rdi       # 8-byte Reload
	movq	14568(%rsp), %rsi       # 8-byte Reload
	movq	14560(%rsp), %rdx       # 8-byte Reload
	movq	14552(%rsp), %rcx       # 8-byte Reload
	movq	14544(%rsp), %r8        # 8-byte Reload
	movl	14268(%rsp), %r9d       # 4-byte Reload
	movl	$1, (%rsp)
	callq	trace_logger_log0
	movq	14240(%rsp), %rdi       # 8-byte Reload
	movq	14248(%rsp), %rsi       # 8-byte Reload
	movq	14136(%rsp), %rdx       # 8-byte Reload
	movq	14240(%rsp), %rcx       # 8-byte Reload
	movq	14584(%rsp), %r8        # 8-byte Reload
	movq	14176(%rsp), %r9        # 8-byte Reload
	movq	14576(%rsp), %r10       # 8-byte Reload
	movq	%r10, (%rsp)
	callq	trace_logger_log_int
	movq	14136(%rsp), %rcx       # 8-byte Reload
	movq	14608(%rsp), %rdi       # 8-byte Reload
	movq	14248(%rsp), %rsi       # 8-byte Reload
	movq	%rcx, %rdx
	movq	14240(%rsp), %r8        # 8-byte Reload
	movq	%rcx, 14128(%rsp)       # 8-byte Spill
	movq	%r8, %rcx
	movq	14600(%rsp), %r8        # 8-byte Reload
	movq	14176(%rsp), %r9        # 8-byte Reload
	movq	14592(%rsp), %r10       # 8-byte Reload
	movq	%r10, (%rsp)
	callq	trace_logger_log_int
	movq	14656(%rsp), %rdi       # 8-byte Reload
	movq	14648(%rsp), %rsi       # 8-byte Reload
	movq	14640(%rsp), %rdx       # 8-byte Reload
	movq	14632(%rsp), %rcx       # 8-byte Reload
	movq	14616(%rsp), %r8        # 8-byte Reload
	movl	14268(%rsp), %r9d       # 4-byte Reload
	movl	$1, (%rsp)
	callq	trace_logger_log0
	movq	14688(%rsp), %rdi       # 8-byte Reload
	movq	14248(%rsp), %rsi       # 8-byte Reload
	movq	14680(%rsp), %rdx       # 8-byte Reload
	movq	14240(%rsp), %rcx       # 8-byte Reload
	movq	14672(%rsp), %r8        # 8-byte Reload
	movq	14176(%rsp), %r9        # 8-byte Reload
	movq	14664(%rsp), %r10       # 8-byte Reload
	movq	%r10, (%rsp)
	callq	trace_logger_log_int
	movq	14240(%rsp), %rdi       # 8-byte Reload
	movq	14248(%rsp), %rsi       # 8-byte Reload
	movq	14728(%rsp), %rdx       # 8-byte Reload
	movq	14176(%rsp), %rcx       # 8-byte Reload
	movq	14704(%rsp), %r8        # 8-byte Reload
	movq	14176(%rsp), %r9        # 8-byte Reload
	movq	14696(%rsp), %r10       # 8-byte Reload
	movq	%r10, (%rsp)
	callq	trace_logger_log_int
	movq	14200(%rsp), %rdi       # 8-byte Reload
	movq	14248(%rsp), %rsi       # 8-byte Reload
	movq	14728(%rsp), %rdx       # 8-byte Reload
	movq	14240(%rsp), %rcx       # 8-byte Reload
	movq	14720(%rsp), %r8        # 8-byte Reload
	movq	14176(%rsp), %r9        # 8-byte Reload
	movq	14712(%rsp), %r10       # 8-byte Reload
	movq	%r10, (%rsp)
	callq	trace_logger_log_int
	movq	14752(%rsp), %rdi       # 8-byte Reload
	movq	14248(%rsp), %rsi       # 8-byte Reload
	movq	14160(%rsp), %rdx       # 8-byte Reload
	movq	14240(%rsp), %rcx       # 8-byte Reload
	movq	14744(%rsp), %r8        # 8-byte Reload
	movq	14176(%rsp), %r9        # 8-byte Reload
	movq	14736(%rsp), %r10       # 8-byte Reload
	movq	%r10, (%rsp)
	callq	trace_logger_log_int
	movq	14200(%rsp), %rdi       # 8-byte Reload
	movq	14248(%rsp), %rsi       # 8-byte Reload
	movq	14160(%rsp), %rdx       # 8-byte Reload
	movq	14240(%rsp), %rcx       # 8-byte Reload
	movq	14768(%rsp), %r8        # 8-byte Reload
	movq	14176(%rsp), %r9        # 8-byte Reload
	movq	14760(%rsp), %r10       # 8-byte Reload
	movq	%r10, (%rsp)
	callq	trace_logger_log_int
	movq	14792(%rsp), %rdi       # 8-byte Reload
	movq	14248(%rsp), %rsi       # 8-byte Reload
	movq	14176(%rsp), %rdx       # 8-byte Reload
	movq	14176(%rsp), %rcx       # 8-byte Reload
	movq	14784(%rsp), %r8        # 8-byte Reload
	movq	14176(%rsp), %r9        # 8-byte Reload
	movq	14776(%rsp), %r10       # 8-byte Reload
	movq	%r10, (%rsp)
	callq	trace_logger_log_int
	movq	14200(%rsp), %rdi       # 8-byte Reload
	movq	14248(%rsp), %rsi       # 8-byte Reload
	movq	14176(%rsp), %rdx       # 8-byte Reload
	movq	14240(%rsp), %rcx       # 8-byte Reload
	movq	14808(%rsp), %r8        # 8-byte Reload
	movq	14176(%rsp), %r9        # 8-byte Reload
	movq	14800(%rsp), %r10       # 8-byte Reload
	movq	%r10, (%rsp)
	callq	trace_logger_log_int
	movq	14832(%rsp), %rdi       # 8-byte Reload
	movq	14248(%rsp), %rsi       # 8-byte Reload
	movq	14176(%rsp), %rdx       # 8-byte Reload
	movq	14176(%rsp), %rcx       # 8-byte Reload
	movq	14824(%rsp), %r8        # 8-byte Reload
	movq	14176(%rsp), %r9        # 8-byte Reload
	movq	14816(%rsp), %r10       # 8-byte Reload
	movq	%r10, (%rsp)
	callq	trace_logger_log_int
	movq	14200(%rsp), %rdi       # 8-byte Reload
	movq	14248(%rsp), %rsi       # 8-byte Reload
	movq	14176(%rsp), %rdx       # 8-byte Reload
	movq	14240(%rsp), %rcx       # 8-byte Reload
	movq	14848(%rsp), %r8        # 8-byte Reload
	movq	14176(%rsp), %r9        # 8-byte Reload
	movq	14840(%rsp), %r10       # 8-byte Reload
	movq	%r10, (%rsp)
	callq	trace_logger_log_int
	movq	14872(%rsp), %rdi       # 8-byte Reload
	movq	14248(%rsp), %rsi       # 8-byte Reload
	movq	14208(%rsp), %rdx       # 8-byte Reload
	movq	14176(%rsp), %rcx       # 8-byte Reload
	movq	14864(%rsp), %r8        # 8-byte Reload
	movq	14176(%rsp), %r9        # 8-byte Reload
	movq	14856(%rsp), %r10       # 8-byte Reload
	movq	%r10, (%rsp)
	callq	trace_logger_log_int
	movq	14200(%rsp), %rdi       # 8-byte Reload
	movq	14248(%rsp), %rsi       # 8-byte Reload
	movq	14208(%rsp), %rdx       # 8-byte Reload
	movq	14240(%rsp), %rcx       # 8-byte Reload
	movq	14224(%rsp), %r8        # 8-byte Reload
	movq	14176(%rsp), %r9        # 8-byte Reload
	movq	14216(%rsp), %r10       # 8-byte Reload
	movq	%r10, (%rsp)
	callq	trace_logger_log_int
	movq	14880(%rsp), %rdi       # 8-byte Reload
	movq	14248(%rsp), %rsi       # 8-byte Reload
	movq	14144(%rsp), %rdx       # 8-byte Reload
	movq	14240(%rsp), %rcx       # 8-byte Reload
	movq	14184(%rsp), %r8        # 8-byte Reload
	movq	14176(%rsp), %r9        # 8-byte Reload
	movq	14192(%rsp), %r10       # 8-byte Reload
	movq	%r10, (%rsp)
	callq	trace_logger_log_int
	movq	14880(%rsp), %rdi       # 8-byte Reload
	movq	14248(%rsp), %rsi       # 8-byte Reload
	movq	14128(%rsp), %rdx       # 8-byte Reload
	movq	14240(%rsp), %rcx       # 8-byte Reload
	movq	14232(%rsp), %r8        # 8-byte Reload
	movq	14176(%rsp), %r9        # 8-byte Reload
	movq	14168(%rsp), %r10       # 8-byte Reload
	movq	%r10, (%rsp)
	callq	trace_logger_log_int
	movq	%rsp, %rcx
	movq	14128(%rsp), %rdx       # 8-byte Reload
	movq	%rdx, (%rcx)
	movl	$orig, %eax
	movl	%eax, %edi
	xorl	%eax, %eax
	movl	%eax, %ecx
	movl	$32768, %eax            # imm = 0x8000
	movl	%eax, %r8d
	movq	14160(%rsp), %rsi       # 8-byte Reload
	movq	%rcx, %rdx
	movq	14144(%rsp), %r9        # 8-byte Reload
	callq	dmaLoad
.Ltmp23:
	movabsq	$12345, %rcx            # imm = 0x3039
	movabsq	$64, %rdx
	movabsq	$0, %rsi
	movabsq	$1, %rdi
	leaq	.L.str117, %r8
	leaq	.L.str118, %r9
	leaq	.L.str115, %r10
	leaq	.L.str116, %r11
	movabsq	$24601, %rbx            # imm = 0x6019
	movabsq	$36, %r14
	leaq	.L.str113, %r15
	leaq	.L.str114, %r12
	movabsq	$5, %r13
	leaq	.L.str111, %rbp
	movq	%rax, 14120(%rsp)       # 8-byte Spill
	leaq	.L.str112, %rax
	movq	%rax, 14112(%rsp)       # 8-byte Spill
	leaq	.L.str109, %rax
	movq	%rax, 14104(%rsp)       # 8-byte Spill
	leaq	.L.str110, %rax
	movq	%rax, 14096(%rsp)       # 8-byte Spill
	movabsq	$4, %rax
	movq	%rax, 14088(%rsp)       # 8-byte Spill
	leaq	.L.str107, %rax
	movq	%rax, 14080(%rsp)       # 8-byte Spill
	leaq	.L.str108, %rax
	movq	%rax, 14072(%rsp)       # 8-byte Spill
	leaq	.L.str105, %rax
	movq	%rax, 14064(%rsp)       # 8-byte Spill
	leaq	.L.str106, %rax
	movq	%rax, 14056(%rsp)       # 8-byte Spill
	movabsq	$3, %rax
	movq	%rax, 14048(%rsp)       # 8-byte Spill
	leaq	.L.str103, %rax
	movq	%rax, 14040(%rsp)       # 8-byte Spill
	leaq	.L.str104, %rax
	movq	%rax, 14032(%rsp)       # 8-byte Spill
	leaq	.L.str101, %rax
	movq	%rax, 14024(%rsp)       # 8-byte Spill
	leaq	.L.str102, %rax
	movq	%rax, 14016(%rsp)       # 8-byte Spill
	movabsq	$2, %rax
	movq	%rax, 14008(%rsp)       # 8-byte Spill
	leaq	.L.str99, %rax
	movq	%rax, 14000(%rsp)       # 8-byte Spill
	leaq	.L.str100, %rax
	movq	%rax, 13992(%rsp)       # 8-byte Spill
	leaq	filter, %rax
	movq	%rax, 13984(%rsp)       # 8-byte Spill
	leaq	.L.str97, %rax
	movq	%rax, 13976(%rsp)       # 8-byte Spill
	leaq	.L.str98, %rax
	movq	%rax, 13968(%rsp)       # 8-byte Spill
	leaq	.L.str95, %rax
	movq	%rax, 13960(%rsp)       # 8-byte Spill
	leaq	.L.str96, %rax
	movq	%rax, 13952(%rsp)       # 8-byte Spill
	movabsq	$8, %rax
	movq	%rax, 13944(%rsp)       # 8-byte Spill
	leaq	dmaLoad, %rax
	movq	%rax, 13936(%rsp)       # 8-byte Spill
	leaq	.L.str93, %rax
	movq	%rax, 13928(%rsp)       # 8-byte Spill
	leaq	.L.str94, %rax
	movq	%rax, 13920(%rsp)       # 8-byte Spill
	movabsq	$13, %rax
	movq	%rax, 13912(%rsp)       # 8-byte Spill
	leaq	.L.str90, %rax
	movq	%rax, 13904(%rsp)       # 8-byte Spill
	leaq	.L.str91, %rax
	movq	%rax, 13896(%rsp)       # 8-byte Spill
	leaq	.L.str92, %rax
	movq	%rax, 13888(%rsp)       # 8-byte Spill
	movabsq	$99, %rax
	movq	%rsi, 13880(%rsp)       # 8-byte Spill
	movl	$1, %esi
	movq	%rax, 13872(%rsp)       # 8-byte Spill
	movabsq	$19134, %rax            # imm = 0x4ABE
	movq	%rax, 13864(%rsp)       # 8-byte Spill
	leaq	.L.str88, %rax
	movq	%rax, 13856(%rsp)       # 8-byte Spill
	leaq	.L.str89, %rax
	movq	%rax, 13848(%rsp)       # 8-byte Spill
	leaq	.L.str86, %rax
	movq	%rax, 13840(%rsp)       # 8-byte Spill
	leaq	.L.str87, %rax
	movq	%rax, 13832(%rsp)       # 8-byte Spill
	leaq	.L.str83, %rax
	movq	%rax, 13824(%rsp)       # 8-byte Spill
	leaq	.L.str84, %rax
	movq	%rax, 13816(%rsp)       # 8-byte Spill
	leaq	.L.str85, %rax
	movq	%rax, 13808(%rsp)       # 8-byte Spill
	movabsq	$44, %rax
	movq	%rax, 13800(%rsp)       # 8-byte Spill
	leaq	.L.str81, %rax
	movq	%rax, 13792(%rsp)       # 8-byte Spill
	leaq	.L.str82, %rax
	movq	%rax, 13784(%rsp)       # 8-byte Spill
	leaq	.L.str79, %rax
	movq	%rax, 13776(%rsp)       # 8-byte Spill
	leaq	.L.str80, %rax
	movq	%rax, 13768(%rsp)       # 8-byte Spill
	leaq	.L.str77, %rax
	movq	%rax, 13760(%rsp)       # 8-byte Spill
	leaq	.L.str78, %rax
	movq	%rax, 13752(%rsp)       # 8-byte Spill
	movabsq	$32, %rax
	movq	%rax, 13744(%rsp)       # 8-byte Spill
	leaq	.L.str75, %rax
	movq	%rax, 13736(%rsp)       # 8-byte Spill
	leaq	.L.str76, %rax
	movq	%rax, 13728(%rsp)       # 8-byte Spill
	leaq	.L.str73, %rax
	movq	%rax, 13720(%rsp)       # 8-byte Spill
	leaq	.L.str74, %rax
	movq	%rax, 13712(%rsp)       # 8-byte Spill
	leaq	.L.str70, %rax
	movq	%rax, 13704(%rsp)       # 8-byte Spill
	leaq	.L.str71, %rax
	movq	%rax, 13696(%rsp)       # 8-byte Spill
	leaq	.L.str72, %rax
	movq	%rax, 13688(%rsp)       # 8-byte Spill
	movabsq	$29, %rax
	movq	%rax, 13680(%rsp)       # 8-byte Spill
	leaq	.L.str68, %rax
	movq	%rax, 13672(%rsp)       # 8-byte Spill
	leaq	.L.str69, %rax
	.loc	1 13 0                  # stencil.c:13:0
	movq	%rax, 13664(%rsp)       # 8-byte Spill
	movq	13864(%rsp), %rax       # 8-byte Reload
	movq	%rdi, 13656(%rsp)       # 8-byte Spill
	movq	%rax, %rdi
	movl	%esi, 13652(%rsp)       # 4-byte Spill
	movq	%rdx, %rsi
	movq	14120(%rsp), %rax       # 8-byte Reload
	movq	%rdx, 13640(%rsp)       # 8-byte Spill
	movq	%rax, %rdx
	movq	13656(%rsp), %rax       # 8-byte Reload
	movq	%rcx, 13632(%rsp)       # 8-byte Spill
	movq	%rax, %rcx
	movq	13672(%rsp), %rax       # 8-byte Reload
	movq	%r8, 13624(%rsp)        # 8-byte Spill
	movq	%rax, %r8
	movq	13880(%rsp), %rax       # 8-byte Reload
	movq	%r9, 13616(%rsp)        # 8-byte Spill
	movq	%rax, %r9
	movq	13664(%rsp), %rax       # 8-byte Reload
	movq	%rax, (%rsp)
	movq	%r15, 13608(%rsp)       # 8-byte Spill
	movq	%r12, 13600(%rsp)       # 8-byte Spill
	movq	%r13, 13592(%rsp)       # 8-byte Spill
	movq	%rbp, 13584(%rsp)       # 8-byte Spill
	movq	%r14, 13576(%rsp)       # 8-byte Spill
	movq	%rbx, 13568(%rsp)       # 8-byte Spill
	movq	%r10, 13560(%rsp)       # 8-byte Spill
	movq	%r11, 13552(%rsp)       # 8-byte Spill
	callq	trace_logger_log_int
	movq	13912(%rsp), %rdi       # 8-byte Reload
	movq	13704(%rsp), %rsi       # 8-byte Reload
	movq	13696(%rsp), %rdx       # 8-byte Reload
	movq	13688(%rsp), %rcx       # 8-byte Reload
	movq	13680(%rsp), %r8        # 8-byte Reload
	movl	13652(%rsp), %r9d       # 4-byte Reload
	movl	$1, (%rsp)
	callq	trace_logger_log0
	movq	14088(%rsp), %rdi       # 8-byte Reload
	movq	13640(%rsp), %rsi       # 8-byte Reload
	movq	13880(%rsp), %rdx       # 8-byte Reload
	movq	13880(%rsp), %rcx       # 8-byte Reload
	movq	13720(%rsp), %r8        # 8-byte Reload
	movq	13880(%rsp), %r9        # 8-byte Reload
	movq	13712(%rsp), %rax       # 8-byte Reload
	movq	%rax, (%rsp)
	callq	trace_logger_log_int
	movq	14048(%rsp), %rdi       # 8-byte Reload
	movq	13744(%rsp), %rsi       # 8-byte Reload
	movq	13656(%rsp), %rdx       # 8-byte Reload
	movq	13880(%rsp), %rcx       # 8-byte Reload
	movq	13736(%rsp), %r8        # 8-byte Reload
	movq	13880(%rsp), %r9        # 8-byte Reload
	movq	13728(%rsp), %rax       # 8-byte Reload
	movq	%rax, (%rsp)
	callq	trace_logger_log_int
	movq	14008(%rsp), %rdi       # 8-byte Reload
	movq	13640(%rsp), %rsi       # 8-byte Reload
	movq	13880(%rsp), %rdx       # 8-byte Reload
	movq	13880(%rsp), %rcx       # 8-byte Reload
	movq	13760(%rsp), %r8        # 8-byte Reload
	movq	13880(%rsp), %r9        # 8-byte Reload
	movq	13752(%rsp), %rax       # 8-byte Reload
	movq	%rax, (%rsp)
	callq	trace_logger_log_int
	movq	13656(%rsp), %rdi       # 8-byte Reload
	movq	13640(%rsp), %rsi       # 8-byte Reload
	movq	14272(%rsp), %rdx       # 8-byte Reload
	movq	13656(%rsp), %rcx       # 8-byte Reload
	movq	13776(%rsp), %r8        # 8-byte Reload
	movq	13880(%rsp), %r9        # 8-byte Reload
	movq	13768(%rsp), %rax       # 8-byte Reload
	movq	%rax, (%rsp)
	callq	trace_logger_log_int
	movq	14272(%rsp), %rax       # 8-byte Reload
	addq	$32768, %rax            # imm = 0x8000
	movq	13864(%rsp), %rdi       # 8-byte Reload
	movq	13640(%rsp), %rsi       # 8-byte Reload
	movq	%rax, %rdx
	movq	13656(%rsp), %rcx       # 8-byte Reload
	movq	13792(%rsp), %r8        # 8-byte Reload
	movq	13880(%rsp), %r9        # 8-byte Reload
	movq	13784(%rsp), %r10       # 8-byte Reload
	movq	%r10, (%rsp)
	movq	%rax, 13544(%rsp)       # 8-byte Spill
	callq	trace_logger_log_int
	movq	13912(%rsp), %rdi       # 8-byte Reload
	movq	13824(%rsp), %rsi       # 8-byte Reload
	movq	13816(%rsp), %rdx       # 8-byte Reload
	movq	13808(%rsp), %rcx       # 8-byte Reload
	movq	13800(%rsp), %r8        # 8-byte Reload
	movl	13652(%rsp), %r9d       # 4-byte Reload
	movl	$1, (%rsp)
	callq	trace_logger_log0
	movq	13656(%rsp), %rdi       # 8-byte Reload
	movq	13640(%rsp), %rsi       # 8-byte Reload
	movq	13544(%rsp), %rdx       # 8-byte Reload
	movq	13656(%rsp), %rcx       # 8-byte Reload
	movq	13840(%rsp), %r8        # 8-byte Reload
	movq	13880(%rsp), %r9        # 8-byte Reload
	movq	13832(%rsp), %rax       # 8-byte Reload
	movq	%rax, (%rsp)
	callq	trace_logger_log_int
	movq	13544(%rsp), %rax       # 8-byte Reload
	movq	13864(%rsp), %rdi       # 8-byte Reload
	movq	13640(%rsp), %rsi       # 8-byte Reload
	movq	%rax, %rdx
	movq	13656(%rsp), %rcx       # 8-byte Reload
	movq	13856(%rsp), %r8        # 8-byte Reload
	movq	13880(%rsp), %r9        # 8-byte Reload
	movq	13848(%rsp), %r10       # 8-byte Reload
	movq	%r10, (%rsp)
	movq	%rax, 13536(%rsp)       # 8-byte Spill
	callq	trace_logger_log_int
	movq	13912(%rsp), %rdi       # 8-byte Reload
	movq	13904(%rsp), %rsi       # 8-byte Reload
	movq	13896(%rsp), %rdx       # 8-byte Reload
	movq	13888(%rsp), %rcx       # 8-byte Reload
	movq	13872(%rsp), %r8        # 8-byte Reload
	movl	13652(%rsp), %r9d       # 4-byte Reload
	movl	$1, (%rsp)
	callq	trace_logger_log0
	movq	13944(%rsp), %rdi       # 8-byte Reload
	movq	13640(%rsp), %rsi       # 8-byte Reload
	movq	13936(%rsp), %rdx       # 8-byte Reload
	movq	13656(%rsp), %rcx       # 8-byte Reload
	movq	13928(%rsp), %r8        # 8-byte Reload
	movq	13880(%rsp), %r9        # 8-byte Reload
	movq	13920(%rsp), %rax       # 8-byte Reload
	movq	%rax, (%rsp)
	callq	trace_logger_log_int
	movq	13656(%rsp), %rdi       # 8-byte Reload
	movq	13640(%rsp), %rsi       # 8-byte Reload
	movq	13984(%rsp), %rdx       # 8-byte Reload
	movq	13880(%rsp), %rcx       # 8-byte Reload
	movq	13960(%rsp), %r8        # 8-byte Reload
	movq	13880(%rsp), %r9        # 8-byte Reload
	movq	13952(%rsp), %rax       # 8-byte Reload
	movq	%rax, (%rsp)
	callq	trace_logger_log_int
	movq	13568(%rsp), %rdi       # 8-byte Reload
	movq	13640(%rsp), %rsi       # 8-byte Reload
	movq	13984(%rsp), %rdx       # 8-byte Reload
	movq	13656(%rsp), %rcx       # 8-byte Reload
	movq	13976(%rsp), %r8        # 8-byte Reload
	movq	13880(%rsp), %r9        # 8-byte Reload
	movq	13968(%rsp), %rax       # 8-byte Reload
	movq	%rax, (%rsp)
	callq	trace_logger_log_int
	movq	14008(%rsp), %rdi       # 8-byte Reload
	movq	13640(%rsp), %rsi       # 8-byte Reload
	movq	13536(%rsp), %rdx       # 8-byte Reload
	movq	13656(%rsp), %rcx       # 8-byte Reload
	movq	14000(%rsp), %r8        # 8-byte Reload
	movq	13880(%rsp), %r9        # 8-byte Reload
	movq	13992(%rsp), %rax       # 8-byte Reload
	movq	%rax, (%rsp)
	callq	trace_logger_log_int
	movq	13568(%rsp), %rdi       # 8-byte Reload
	movq	13640(%rsp), %rsi       # 8-byte Reload
	movq	13536(%rsp), %rdx       # 8-byte Reload
	movq	13656(%rsp), %rcx       # 8-byte Reload
	movq	14024(%rsp), %r8        # 8-byte Reload
	movq	13880(%rsp), %r9        # 8-byte Reload
	movq	14016(%rsp), %rax       # 8-byte Reload
	movq	%rax, (%rsp)
	callq	trace_logger_log_int
	movq	14048(%rsp), %rdi       # 8-byte Reload
	movq	13640(%rsp), %rsi       # 8-byte Reload
	movq	13880(%rsp), %rdx       # 8-byte Reload
	movq	13880(%rsp), %rcx       # 8-byte Reload
	movq	14040(%rsp), %r8        # 8-byte Reload
	movq	13880(%rsp), %r9        # 8-byte Reload
	movq	14032(%rsp), %rax       # 8-byte Reload
	movq	%rax, (%rsp)
	callq	trace_logger_log_int
	movq	13568(%rsp), %rdi       # 8-byte Reload
	movq	13640(%rsp), %rsi       # 8-byte Reload
	movq	13880(%rsp), %rdx       # 8-byte Reload
	movq	13656(%rsp), %rcx       # 8-byte Reload
	movq	14064(%rsp), %r8        # 8-byte Reload
	movq	13880(%rsp), %r9        # 8-byte Reload
	movq	14056(%rsp), %rax       # 8-byte Reload
	movq	%rax, (%rsp)
	callq	trace_logger_log_int
	movq	14088(%rsp), %rdi       # 8-byte Reload
	movq	13640(%rsp), %rsi       # 8-byte Reload
	movq	13880(%rsp), %rdx       # 8-byte Reload
	movq	13880(%rsp), %rcx       # 8-byte Reload
	movq	14080(%rsp), %r8        # 8-byte Reload
	movq	13880(%rsp), %r9        # 8-byte Reload
	movq	14072(%rsp), %rax       # 8-byte Reload
	movq	%rax, (%rsp)
	callq	trace_logger_log_int
	movq	13568(%rsp), %rdi       # 8-byte Reload
	movq	13640(%rsp), %rsi       # 8-byte Reload
	movq	13880(%rsp), %rdx       # 8-byte Reload
	movq	13656(%rsp), %rcx       # 8-byte Reload
	movq	14104(%rsp), %r8        # 8-byte Reload
	movq	13880(%rsp), %r9        # 8-byte Reload
	movq	14096(%rsp), %rax       # 8-byte Reload
	movq	%rax, (%rsp)
	callq	trace_logger_log_int
	movq	13592(%rsp), %rdi       # 8-byte Reload
	movq	13640(%rsp), %rsi       # 8-byte Reload
	movq	13576(%rsp), %rdx       # 8-byte Reload
	movq	13880(%rsp), %rcx       # 8-byte Reload
	movq	13584(%rsp), %r8        # 8-byte Reload
	movq	13880(%rsp), %r9        # 8-byte Reload
	movq	14112(%rsp), %rax       # 8-byte Reload
	movq	%rax, (%rsp)
	callq	trace_logger_log_int
	movq	13568(%rsp), %rdi       # 8-byte Reload
	movq	13640(%rsp), %rsi       # 8-byte Reload
	movq	13576(%rsp), %rdx       # 8-byte Reload
	movq	13656(%rsp), %rcx       # 8-byte Reload
	movq	13608(%rsp), %r8        # 8-byte Reload
	movq	13880(%rsp), %r9        # 8-byte Reload
	movq	13600(%rsp), %rax       # 8-byte Reload
	movq	%rax, (%rsp)
	callq	trace_logger_log_int
	movq	13632(%rsp), %rdi       # 8-byte Reload
	movq	13640(%rsp), %rsi       # 8-byte Reload
	movq	14144(%rsp), %rdx       # 8-byte Reload
	movq	13656(%rsp), %rcx       # 8-byte Reload
	movq	13560(%rsp), %r8        # 8-byte Reload
	movq	13880(%rsp), %r9        # 8-byte Reload
	movq	13552(%rsp), %rax       # 8-byte Reload
	movq	%rax, (%rsp)
	callq	trace_logger_log_int
	movq	13632(%rsp), %rdi       # 8-byte Reload
	movq	13640(%rsp), %rsi       # 8-byte Reload
	movq	13880(%rsp), %rdx       # 8-byte Reload
	movq	13656(%rsp), %rcx       # 8-byte Reload
	movq	13624(%rsp), %r8        # 8-byte Reload
	movq	13880(%rsp), %r9        # 8-byte Reload
	movq	13616(%rsp), %rax       # 8-byte Reload
	movq	%rax, (%rsp)
	callq	trace_logger_log_int
	movq	%rsp, %rax
	movq	$0, (%rax)
	movl	$filter, %esi
	movl	%esi, %edi
	xorl	%esi, %esi
	movl	%esi, %eax
	movl	$36, %esi
	movl	%esi, %r8d
	movq	13536(%rsp), %rsi       # 8-byte Reload
	movq	%rax, %rdx
	movq	%rax, %rcx
	movq	14144(%rsp), %r9        # 8-byte Reload
	callq	dmaLoad
	movabsq	$12345, %rcx            # imm = 0x3039
	movabsq	$64, %rdx
	movabsq	$1, %rsi
	leaq	.L.str164, %r8
	movabsq	$0, %rdi
	leaq	.L.str165, %r9
	leaq	.L.str162, %r10
	leaq	.L.str163, %r11
	movabsq	$24601, %rbx            # imm = 0x6019
	movabsq	$32768, %r14            # imm = 0x8000
	leaq	.L.str160, %r15
	leaq	.L.str161, %r12
	movabsq	$5, %r13
	leaq	.L.str158, %rbp
	movq	%rax, 13528(%rsp)       # 8-byte Spill
	leaq	.L.str159, %rax
	movq	%rax, 13520(%rsp)       # 8-byte Spill
	movabsq	$65572, %rax            # imm = 0x10024
	movq	%rax, 13512(%rsp)       # 8-byte Spill
	leaq	.L.str156, %rax
	movq	%rax, 13504(%rsp)       # 8-byte Spill
	leaq	.L.str157, %rax
	movq	%rax, 13496(%rsp)       # 8-byte Spill
	movabsq	$4, %rax
	movq	%rax, 13488(%rsp)       # 8-byte Spill
	leaq	.L.str154, %rax
	movq	%rax, 13480(%rsp)       # 8-byte Spill
	leaq	.L.str155, %rax
	movq	%rax, 13472(%rsp)       # 8-byte Spill
	leaq	.L.str152, %rax
	movq	%rax, 13464(%rsp)       # 8-byte Spill
	leaq	.L.str153, %rax
	movq	%rax, 13456(%rsp)       # 8-byte Spill
	movabsq	$3, %rax
	movq	%rax, 13448(%rsp)       # 8-byte Spill
	leaq	.L.str150, %rax
	movq	%rax, 13440(%rsp)       # 8-byte Spill
	leaq	.L.str151, %rax
	movq	%rax, 13432(%rsp)       # 8-byte Spill
	leaq	.L.str148, %rax
	movq	%rax, 13424(%rsp)       # 8-byte Spill
	leaq	.L.str149, %rax
	movq	%rax, 13416(%rsp)       # 8-byte Spill
	movabsq	$2, %rax
	movq	%rax, 13408(%rsp)       # 8-byte Spill
	leaq	.L.str146, %rax
	movq	%rax, 13400(%rsp)       # 8-byte Spill
	leaq	.L.str147, %rax
	movq	%rax, 13392(%rsp)       # 8-byte Spill
	leaq	orig, %rax
	movq	%rax, 13384(%rsp)       # 8-byte Spill
	leaq	.L.str144, %rax
	movq	%rax, 13376(%rsp)       # 8-byte Spill
	leaq	.L.str145, %rax
	movq	%rax, 13368(%rsp)       # 8-byte Spill
	leaq	.L.str142, %rax
	movq	%rax, 13360(%rsp)       # 8-byte Spill
	leaq	.L.str143, %rax
	movq	%rax, 13352(%rsp)       # 8-byte Spill
	movabsq	$8, %rax
	movq	%rax, 13344(%rsp)       # 8-byte Spill
	leaq	dmaLoad, %rax
	movq	%rax, 13336(%rsp)       # 8-byte Spill
	leaq	.L.str140, %rax
	movq	%rax, 13328(%rsp)       # 8-byte Spill
	leaq	.L.str141, %rax
	movq	%rax, 13320(%rsp)       # 8-byte Spill
	movabsq	$16, %rax
	movq	%rax, 13312(%rsp)       # 8-byte Spill
	leaq	.L.str137, %rax
	movq	%rax, 13304(%rsp)       # 8-byte Spill
	leaq	.L.str138, %rax
	movq	%rax, 13296(%rsp)       # 8-byte Spill
	leaq	.L.str139, %rax
	movq	%rax, 13288(%rsp)       # 8-byte Spill
	movabsq	$99, %rax
	movq	%rsi, 13280(%rsp)       # 8-byte Spill
	movl	$1, %esi
	movq	%rax, 13272(%rsp)       # 8-byte Spill
	movabsq	$19134, %rax            # imm = 0x4ABE
	movq	%rax, 13264(%rsp)       # 8-byte Spill
	leaq	.L.str135, %rax
	movq	%rax, 13256(%rsp)       # 8-byte Spill
	leaq	.L.str136, %rax
	movq	%rax, 13248(%rsp)       # 8-byte Spill
	leaq	.L.str133, %rax
	movq	%rax, 13240(%rsp)       # 8-byte Spill
	leaq	.L.str134, %rax
	movq	%rax, 13232(%rsp)       # 8-byte Spill
	leaq	.L.str130, %rax
	movq	%rax, 13224(%rsp)       # 8-byte Spill
	leaq	.L.str131, %rax
	movq	%rax, 13216(%rsp)       # 8-byte Spill
	leaq	.L.str132, %rax
	movq	%rax, 13208(%rsp)       # 8-byte Spill
	movabsq	$44, %rax
	movq	%rax, 13200(%rsp)       # 8-byte Spill
	leaq	.L.str128, %rax
	movq	%rax, 13192(%rsp)       # 8-byte Spill
	leaq	.L.str129, %rax
	movq	%rax, 13184(%rsp)       # 8-byte Spill
	leaq	.L.str126, %rax
	movq	%rax, 13176(%rsp)       # 8-byte Spill
	leaq	.L.str127, %rax
	movq	%rax, 13168(%rsp)       # 8-byte Spill
	leaq	.L.str124, %rax
	movq	%rax, 13160(%rsp)       # 8-byte Spill
	leaq	.L.str125, %rax
	movq	%rax, 13152(%rsp)       # 8-byte Spill
	leaq	.L.str121, %rax
	movq	%rax, 13144(%rsp)       # 8-byte Spill
	leaq	.L.str122, %rax
	movq	%rax, 13136(%rsp)       # 8-byte Spill
	leaq	.L.str123, %rax
	movq	%rax, 13128(%rsp)       # 8-byte Spill
	movabsq	$29, %rax
	movq	%rax, 13120(%rsp)       # 8-byte Spill
	leaq	.L.str119, %rax
	movq	%rax, 13112(%rsp)       # 8-byte Spill
	leaq	.L.str120, %rax
	.loc	1 16 0                  # stencil.c:16:0
.Ltmp24:
	movq	%rax, 13104(%rsp)       # 8-byte Spill
	movq	13264(%rsp), %rax       # 8-byte Reload
	movq	%rdi, 13096(%rsp)       # 8-byte Spill
	movq	%rax, %rdi
	movl	%esi, 13092(%rsp)       # 4-byte Spill
	movq	%rdx, %rsi
	movq	13528(%rsp), %rax       # 8-byte Reload
	movq	%rdx, 13080(%rsp)       # 8-byte Spill
	movq	%rax, %rdx
	movq	13280(%rsp), %rax       # 8-byte Reload
	movq	%rcx, 13072(%rsp)       # 8-byte Spill
	movq	%rax, %rcx
	movq	13112(%rsp), %rax       # 8-byte Reload
	movq	%r8, 13064(%rsp)        # 8-byte Spill
	movq	%rax, %r8
	movq	13096(%rsp), %rax       # 8-byte Reload
	movq	%r9, 13056(%rsp)        # 8-byte Spill
	movq	%rax, %r9
	movq	13104(%rsp), %rax       # 8-byte Reload
	movq	%rax, (%rsp)
	movq	%r15, 13048(%rsp)       # 8-byte Spill
	movq	%r12, 13040(%rsp)       # 8-byte Spill
	movq	%r13, 13032(%rsp)       # 8-byte Spill
	movq	%r14, 13024(%rsp)       # 8-byte Spill
	movq	%rbp, 13016(%rsp)       # 8-byte Spill
	movq	%rbx, 13008(%rsp)       # 8-byte Spill
	movq	%r10, 13000(%rsp)       # 8-byte Spill
	movq	%r11, 12992(%rsp)       # 8-byte Spill
	callq	trace_logger_log_int
	movq	13312(%rsp), %rdi       # 8-byte Reload
	movq	13144(%rsp), %rsi       # 8-byte Reload
	movq	13136(%rsp), %rdx       # 8-byte Reload
	movq	13128(%rsp), %rcx       # 8-byte Reload
	movq	13120(%rsp), %r8        # 8-byte Reload
	movl	13092(%rsp), %r9d       # 4-byte Reload
	movl	$1, (%rsp)
	callq	trace_logger_log0
	movq	13408(%rsp), %rdi       # 8-byte Reload
	movq	13080(%rsp), %rsi       # 8-byte Reload
	movq	13408(%rsp), %rdx       # 8-byte Reload
	movq	13096(%rsp), %rcx       # 8-byte Reload
	movq	13160(%rsp), %r8        # 8-byte Reload
	movq	13096(%rsp), %r9        # 8-byte Reload
	movq	13152(%rsp), %rax       # 8-byte Reload
	movq	%rax, (%rsp)
	callq	trace_logger_log_int
	movq	13280(%rsp), %rdi       # 8-byte Reload
	movq	13080(%rsp), %rsi       # 8-byte Reload
	movq	14624(%rsp), %rdx       # 8-byte Reload
	movq	13280(%rsp), %rcx       # 8-byte Reload
	movq	13176(%rsp), %r8        # 8-byte Reload
	movq	13096(%rsp), %r9        # 8-byte Reload
	movq	13168(%rsp), %rax       # 8-byte Reload
	movq	%rax, (%rsp)
	callq	trace_logger_log_int
	movq	14624(%rsp), %rax       # 8-byte Reload
	addq	$8, %rax
	movq	13264(%rsp), %rdi       # 8-byte Reload
	movq	13080(%rsp), %rsi       # 8-byte Reload
	movq	%rax, %rdx
	movq	13280(%rsp), %rcx       # 8-byte Reload
	movq	13192(%rsp), %r8        # 8-byte Reload
	movq	13096(%rsp), %r9        # 8-byte Reload
	movq	13184(%rsp), %r10       # 8-byte Reload
	movq	%r10, (%rsp)
	movq	%rax, 12984(%rsp)       # 8-byte Spill
	callq	trace_logger_log_int
	movq	13312(%rsp), %rdi       # 8-byte Reload
	movq	13224(%rsp), %rsi       # 8-byte Reload
	movq	13216(%rsp), %rdx       # 8-byte Reload
	movq	13208(%rsp), %rcx       # 8-byte Reload
	movq	13200(%rsp), %r8        # 8-byte Reload
	movl	13092(%rsp), %r9d       # 4-byte Reload
	movl	$1, (%rsp)
	callq	trace_logger_log0
	movq	13280(%rsp), %rdi       # 8-byte Reload
	movq	13080(%rsp), %rsi       # 8-byte Reload
	movq	12984(%rsp), %rdx       # 8-byte Reload
	movq	13280(%rsp), %rcx       # 8-byte Reload
	movq	13240(%rsp), %r8        # 8-byte Reload
	movq	13096(%rsp), %r9        # 8-byte Reload
	movq	13232(%rsp), %rax       # 8-byte Reload
	movq	%rax, (%rsp)
	callq	trace_logger_log_int
	movq	12984(%rsp), %rax       # 8-byte Reload
	movq	13264(%rsp), %rdi       # 8-byte Reload
	movq	13080(%rsp), %rsi       # 8-byte Reload
	movq	%rax, %rdx
	movq	13280(%rsp), %rcx       # 8-byte Reload
	movq	13256(%rsp), %r8        # 8-byte Reload
	movq	13096(%rsp), %r9        # 8-byte Reload
	movq	13248(%rsp), %r10       # 8-byte Reload
	movq	%r10, (%rsp)
	movq	%rax, 12976(%rsp)       # 8-byte Spill
	callq	trace_logger_log_int
	movq	13312(%rsp), %rdi       # 8-byte Reload
	movq	13304(%rsp), %rsi       # 8-byte Reload
	movq	13296(%rsp), %rdx       # 8-byte Reload
	movq	13288(%rsp), %rcx       # 8-byte Reload
	movq	13272(%rsp), %r8        # 8-byte Reload
	movl	13092(%rsp), %r9d       # 4-byte Reload
	movl	$1, (%rsp)
	callq	trace_logger_log0
	movq	13344(%rsp), %rdi       # 8-byte Reload
	movq	13080(%rsp), %rsi       # 8-byte Reload
	movq	13336(%rsp), %rdx       # 8-byte Reload
	movq	13280(%rsp), %rcx       # 8-byte Reload
	movq	13328(%rsp), %r8        # 8-byte Reload
	movq	13096(%rsp), %r9        # 8-byte Reload
	movq	13320(%rsp), %rax       # 8-byte Reload
	movq	%rax, (%rsp)
	callq	trace_logger_log_int
	movq	13280(%rsp), %rdi       # 8-byte Reload
	movq	13080(%rsp), %rsi       # 8-byte Reload
	movq	13384(%rsp), %rdx       # 8-byte Reload
	movq	13096(%rsp), %rcx       # 8-byte Reload
	movq	13360(%rsp), %r8        # 8-byte Reload
	movq	13096(%rsp), %r9        # 8-byte Reload
	movq	13352(%rsp), %rax       # 8-byte Reload
	movq	%rax, (%rsp)
	callq	trace_logger_log_int
	movq	13008(%rsp), %rdi       # 8-byte Reload
	movq	13080(%rsp), %rsi       # 8-byte Reload
	movq	13384(%rsp), %rdx       # 8-byte Reload
	movq	13280(%rsp), %rcx       # 8-byte Reload
	movq	13376(%rsp), %r8        # 8-byte Reload
	movq	13096(%rsp), %r9        # 8-byte Reload
	movq	13368(%rsp), %rax       # 8-byte Reload
	movq	%rax, (%rsp)
	callq	trace_logger_log_int
	movq	13408(%rsp), %rdi       # 8-byte Reload
	movq	13080(%rsp), %rsi       # 8-byte Reload
	movq	14160(%rsp), %rdx       # 8-byte Reload
	movq	13280(%rsp), %rcx       # 8-byte Reload
	movq	13400(%rsp), %r8        # 8-byte Reload
	movq	13096(%rsp), %r9        # 8-byte Reload
	movq	13392(%rsp), %rax       # 8-byte Reload
	movq	%rax, (%rsp)
	callq	trace_logger_log_int
	movq	13008(%rsp), %rdi       # 8-byte Reload
	movq	13080(%rsp), %rsi       # 8-byte Reload
	movq	14160(%rsp), %rdx       # 8-byte Reload
	movq	13280(%rsp), %rcx       # 8-byte Reload
	movq	13424(%rsp), %r8        # 8-byte Reload
	movq	13096(%rsp), %r9        # 8-byte Reload
	movq	13416(%rsp), %rax       # 8-byte Reload
	movq	%rax, (%rsp)
	callq	trace_logger_log_int
	movq	13448(%rsp), %rdi       # 8-byte Reload
	movq	13080(%rsp), %rsi       # 8-byte Reload
	movq	13024(%rsp), %rdx       # 8-byte Reload
	movq	13096(%rsp), %rcx       # 8-byte Reload
	movq	13440(%rsp), %r8        # 8-byte Reload
	movq	13096(%rsp), %r9        # 8-byte Reload
	movq	13432(%rsp), %rax       # 8-byte Reload
	movq	%rax, (%rsp)
	callq	trace_logger_log_int
	movq	13008(%rsp), %rdi       # 8-byte Reload
	movq	13080(%rsp), %rsi       # 8-byte Reload
	movq	13024(%rsp), %rdx       # 8-byte Reload
	movq	13280(%rsp), %rcx       # 8-byte Reload
	movq	13464(%rsp), %r8        # 8-byte Reload
	movq	13096(%rsp), %r9        # 8-byte Reload
	movq	13456(%rsp), %rax       # 8-byte Reload
	movq	%rax, (%rsp)
	callq	trace_logger_log_int
	movq	13488(%rsp), %rdi       # 8-byte Reload
	movq	13080(%rsp), %rsi       # 8-byte Reload
	movq	13512(%rsp), %rdx       # 8-byte Reload
	movq	13096(%rsp), %rcx       # 8-byte Reload
	movq	13480(%rsp), %r8        # 8-byte Reload
	movq	13096(%rsp), %r9        # 8-byte Reload
	movq	13472(%rsp), %rax       # 8-byte Reload
	movq	%rax, (%rsp)
	callq	trace_logger_log_int
	movq	13008(%rsp), %rdi       # 8-byte Reload
	movq	13080(%rsp), %rsi       # 8-byte Reload
	movq	13512(%rsp), %rdx       # 8-byte Reload
	movq	13280(%rsp), %rcx       # 8-byte Reload
	movq	13504(%rsp), %r8        # 8-byte Reload
	movq	13096(%rsp), %r9        # 8-byte Reload
	movq	13496(%rsp), %rax       # 8-byte Reload
	movq	%rax, (%rsp)
	callq	trace_logger_log_int
	movq	13032(%rsp), %rdi       # 8-byte Reload
	movq	13080(%rsp), %rsi       # 8-byte Reload
	movq	13024(%rsp), %rdx       # 8-byte Reload
	movq	13096(%rsp), %rcx       # 8-byte Reload
	movq	13016(%rsp), %r8        # 8-byte Reload
	movq	13096(%rsp), %r9        # 8-byte Reload
	movq	13520(%rsp), %rax       # 8-byte Reload
	movq	%rax, (%rsp)
	callq	trace_logger_log_int
	movq	13008(%rsp), %rdi       # 8-byte Reload
	movq	13080(%rsp), %rsi       # 8-byte Reload
	movq	13024(%rsp), %rdx       # 8-byte Reload
	movq	13280(%rsp), %rcx       # 8-byte Reload
	movq	13048(%rsp), %r8        # 8-byte Reload
	movq	13096(%rsp), %r9        # 8-byte Reload
	movq	13040(%rsp), %rax       # 8-byte Reload
	movq	%rax, (%rsp)
	callq	trace_logger_log_int
	movq	13072(%rsp), %rdi       # 8-byte Reload
	movq	13080(%rsp), %rsi       # 8-byte Reload
	movq	12976(%rsp), %rdx       # 8-byte Reload
	movq	13280(%rsp), %rcx       # 8-byte Reload
	movq	13000(%rsp), %r8        # 8-byte Reload
	movq	13096(%rsp), %r9        # 8-byte Reload
	movq	12992(%rsp), %rax       # 8-byte Reload
	movq	%rax, (%rsp)
	callq	trace_logger_log_int
	movq	13072(%rsp), %rdi       # 8-byte Reload
	movq	13080(%rsp), %rsi       # 8-byte Reload
	movq	14128(%rsp), %rdx       # 8-byte Reload
	movq	13280(%rsp), %rcx       # 8-byte Reload
	movq	13064(%rsp), %r8        # 8-byte Reload
	movq	13096(%rsp), %r9        # 8-byte Reload
	movq	13056(%rsp), %rax       # 8-byte Reload
	movq	%rax, (%rsp)
	callq	trace_logger_log_int
	movq	%rsp, %rax
	movq	14128(%rsp), %rcx       # 8-byte Reload
	movq	%rcx, (%rax)
	movl	$orig, %esi
	movl	%esi, %edi
	movl	$65572, %esi            # imm = 0x10024
	movl	%esi, %ecx
	movl	$32768, %esi            # imm = 0x8000
	movl	%esi, %eax
	movq	14160(%rsp), %rsi       # 8-byte Reload
	movq	%rax, %rdx
	movq	%rax, %r8
	movq	12976(%rsp), %r9        # 8-byte Reload
	callq	dmaLoad
	movabsq	$12345, %rcx            # imm = 0x3039
	movabsq	$64, %rdx
	movabsq	$0, %rsi
	movabsq	$1, %rdi
	leaq	.L.str195, %r8
	leaq	.L.str196, %r9
	leaq	.L.str193, %r10
	leaq	.L.str194, %r11
	movabsq	$24601, %rbx            # imm = 0x6019
	movabsq	$36, %r14
	leaq	.L.str191, %r15
	leaq	.L.str192, %r12
	movabsq	$5, %r13
	leaq	.L.str189, %rbp
	movq	%rax, 12968(%rsp)       # 8-byte Spill
	leaq	.L.str190, %rax
	movq	%rax, 12960(%rsp)       # 8-byte Spill
	movabsq	$65572, %rax            # imm = 0x10024
	movq	%rax, 12952(%rsp)       # 8-byte Spill
	leaq	.L.str187, %rax
	movq	%rax, 12944(%rsp)       # 8-byte Spill
	leaq	.L.str188, %rax
	movq	%rax, 12936(%rsp)       # 8-byte Spill
	movabsq	$4, %rax
	movq	%rax, 12928(%rsp)       # 8-byte Spill
	leaq	.L.str185, %rax
	movq	%rax, 12920(%rsp)       # 8-byte Spill
	leaq	.L.str186, %rax
	movq	%rax, 12912(%rsp)       # 8-byte Spill
	leaq	.L.str183, %rax
	movq	%rax, 12904(%rsp)       # 8-byte Spill
	leaq	.L.str184, %rax
	movq	%rax, 12896(%rsp)       # 8-byte Spill
	movabsq	$3, %rax
	movq	%rax, 12888(%rsp)       # 8-byte Spill
	leaq	.L.str181, %rax
	movq	%rax, 12880(%rsp)       # 8-byte Spill
	leaq	.L.str182, %rax
	movq	%rax, 12872(%rsp)       # 8-byte Spill
	leaq	.L.str179, %rax
	movq	%rax, 12864(%rsp)       # 8-byte Spill
	leaq	.L.str180, %rax
	movq	%rax, 12856(%rsp)       # 8-byte Spill
	movabsq	$2, %rax
	movq	%rax, 12848(%rsp)       # 8-byte Spill
	leaq	.L.str177, %rax
	movq	%rax, 12840(%rsp)       # 8-byte Spill
	leaq	.L.str178, %rax
	movq	%rax, 12832(%rsp)       # 8-byte Spill
	leaq	filter, %rax
	movq	%rax, 12824(%rsp)       # 8-byte Spill
	leaq	.L.str175, %rax
	movq	%rax, 12816(%rsp)       # 8-byte Spill
	leaq	.L.str176, %rax
	movq	%rax, 12808(%rsp)       # 8-byte Spill
	leaq	.L.str173, %rax
	movq	%rax, 12800(%rsp)       # 8-byte Spill
	leaq	.L.str174, %rax
	movq	%rax, 12792(%rsp)       # 8-byte Spill
	movabsq	$8, %rax
	movq	%rax, 12784(%rsp)       # 8-byte Spill
	leaq	dmaLoad, %rax
	movq	%rax, 12776(%rsp)       # 8-byte Spill
	leaq	.L.str171, %rax
	movq	%rax, 12768(%rsp)       # 8-byte Spill
	leaq	.L.str172, %rax
	movq	%rax, 12760(%rsp)       # 8-byte Spill
	movabsq	$18, %rax
	movq	%rax, 12752(%rsp)       # 8-byte Spill
	leaq	.L.str168, %rax
	movq	%rax, 12744(%rsp)       # 8-byte Spill
	leaq	.L.str169, %rax
	movq	%rax, 12736(%rsp)       # 8-byte Spill
	leaq	.L.str170, %rax
	movq	%rax, 12728(%rsp)       # 8-byte Spill
	movabsq	$99, %rax
	movq	%rsi, 12720(%rsp)       # 8-byte Spill
	movl	$1, %esi
	movq	%rax, 12712(%rsp)       # 8-byte Spill
	movabsq	$19134, %rax            # imm = 0x4ABE
	movq	%rax, 12704(%rsp)       # 8-byte Spill
	leaq	.L.str166, %rax
	movq	%rax, 12696(%rsp)       # 8-byte Spill
	leaq	.L.str167, %rax
	.loc	1 18 0                  # stencil.c:18:0
	movq	%rax, 12688(%rsp)       # 8-byte Spill
	movq	12704(%rsp), %rax       # 8-byte Reload
	movq	%rdi, 12680(%rsp)       # 8-byte Spill
	movq	%rax, %rdi
	movl	%esi, 12676(%rsp)       # 4-byte Spill
	movq	%rdx, %rsi
	movq	12968(%rsp), %rax       # 8-byte Reload
	movq	%rdx, 12664(%rsp)       # 8-byte Spill
	movq	%rax, %rdx
	movq	12680(%rsp), %rax       # 8-byte Reload
	movq	%rcx, 12656(%rsp)       # 8-byte Spill
	movq	%rax, %rcx
	movq	12696(%rsp), %rax       # 8-byte Reload
	movq	%r8, 12648(%rsp)        # 8-byte Spill
	movq	%rax, %r8
	movq	12720(%rsp), %rax       # 8-byte Reload
	movq	%r9, 12640(%rsp)        # 8-byte Spill
	movq	%rax, %r9
	movq	12688(%rsp), %rax       # 8-byte Reload
	movq	%rax, (%rsp)
	movq	%r15, 12632(%rsp)       # 8-byte Spill
	movq	%r12, 12624(%rsp)       # 8-byte Spill
	movq	%r13, 12616(%rsp)       # 8-byte Spill
	movq	%rbp, 12608(%rsp)       # 8-byte Spill
	movq	%r14, 12600(%rsp)       # 8-byte Spill
	movq	%rbx, 12592(%rsp)       # 8-byte Spill
	movq	%r10, 12584(%rsp)       # 8-byte Spill
	movq	%r11, 12576(%rsp)       # 8-byte Spill
	callq	trace_logger_log_int
	movq	12752(%rsp), %rdi       # 8-byte Reload
	movq	12744(%rsp), %rsi       # 8-byte Reload
	movq	12736(%rsp), %rdx       # 8-byte Reload
	movq	12728(%rsp), %rcx       # 8-byte Reload
	movq	12712(%rsp), %r8        # 8-byte Reload
	movl	12676(%rsp), %r9d       # 4-byte Reload
	movl	$1, (%rsp)
	callq	trace_logger_log0
	movq	12784(%rsp), %rdi       # 8-byte Reload
	movq	12664(%rsp), %rsi       # 8-byte Reload
	movq	12776(%rsp), %rdx       # 8-byte Reload
	movq	12680(%rsp), %rcx       # 8-byte Reload
	movq	12768(%rsp), %r8        # 8-byte Reload
	movq	12720(%rsp), %r9        # 8-byte Reload
	movq	12760(%rsp), %rax       # 8-byte Reload
	movq	%rax, (%rsp)
	callq	trace_logger_log_int
	movq	12680(%rsp), %rdi       # 8-byte Reload
	movq	12664(%rsp), %rsi       # 8-byte Reload
	movq	12824(%rsp), %rdx       # 8-byte Reload
	movq	12720(%rsp), %rcx       # 8-byte Reload
	movq	12800(%rsp), %r8        # 8-byte Reload
	movq	12720(%rsp), %r9        # 8-byte Reload
	movq	12792(%rsp), %rax       # 8-byte Reload
	movq	%rax, (%rsp)
	callq	trace_logger_log_int
	movq	12592(%rsp), %rdi       # 8-byte Reload
	movq	12664(%rsp), %rsi       # 8-byte Reload
	movq	12824(%rsp), %rdx       # 8-byte Reload
	movq	12680(%rsp), %rcx       # 8-byte Reload
	movq	12816(%rsp), %r8        # 8-byte Reload
	movq	12720(%rsp), %r9        # 8-byte Reload
	movq	12808(%rsp), %rax       # 8-byte Reload
	movq	%rax, (%rsp)
	callq	trace_logger_log_int
	movq	12848(%rsp), %rdi       # 8-byte Reload
	movq	12664(%rsp), %rsi       # 8-byte Reload
	movq	13536(%rsp), %rdx       # 8-byte Reload
	movq	12680(%rsp), %rcx       # 8-byte Reload
	movq	12840(%rsp), %r8        # 8-byte Reload
	movq	12720(%rsp), %r9        # 8-byte Reload
	movq	12832(%rsp), %rax       # 8-byte Reload
	movq	%rax, (%rsp)
	callq	trace_logger_log_int
	movq	12592(%rsp), %rdi       # 8-byte Reload
	movq	12664(%rsp), %rsi       # 8-byte Reload
	movq	13536(%rsp), %rdx       # 8-byte Reload
	movq	12680(%rsp), %rcx       # 8-byte Reload
	movq	12864(%rsp), %r8        # 8-byte Reload
	movq	12720(%rsp), %r9        # 8-byte Reload
	movq	12856(%rsp), %rax       # 8-byte Reload
	movq	%rax, (%rsp)
	callq	trace_logger_log_int
	movq	12888(%rsp), %rdi       # 8-byte Reload
	movq	12664(%rsp), %rsi       # 8-byte Reload
	movq	12600(%rsp), %rdx       # 8-byte Reload
	movq	12720(%rsp), %rcx       # 8-byte Reload
	movq	12880(%rsp), %r8        # 8-byte Reload
	movq	12720(%rsp), %r9        # 8-byte Reload
	movq	12872(%rsp), %rax       # 8-byte Reload
	movq	%rax, (%rsp)
	callq	trace_logger_log_int
	movq	12592(%rsp), %rdi       # 8-byte Reload
	movq	12664(%rsp), %rsi       # 8-byte Reload
	movq	12600(%rsp), %rdx       # 8-byte Reload
	movq	12680(%rsp), %rcx       # 8-byte Reload
	movq	12904(%rsp), %r8        # 8-byte Reload
	movq	12720(%rsp), %r9        # 8-byte Reload
	movq	12896(%rsp), %rax       # 8-byte Reload
	movq	%rax, (%rsp)
	callq	trace_logger_log_int
	movq	12928(%rsp), %rdi       # 8-byte Reload
	movq	12664(%rsp), %rsi       # 8-byte Reload
	movq	12952(%rsp), %rdx       # 8-byte Reload
	movq	12720(%rsp), %rcx       # 8-byte Reload
	movq	12920(%rsp), %r8        # 8-byte Reload
	movq	12720(%rsp), %r9        # 8-byte Reload
	movq	12912(%rsp), %rax       # 8-byte Reload
	movq	%rax, (%rsp)
	callq	trace_logger_log_int
	movq	12592(%rsp), %rdi       # 8-byte Reload
	movq	12664(%rsp), %rsi       # 8-byte Reload
	movq	12952(%rsp), %rdx       # 8-byte Reload
	movq	12680(%rsp), %rcx       # 8-byte Reload
	movq	12944(%rsp), %r8        # 8-byte Reload
	movq	12720(%rsp), %r9        # 8-byte Reload
	movq	12936(%rsp), %rax       # 8-byte Reload
	movq	%rax, (%rsp)
	callq	trace_logger_log_int
	movq	12616(%rsp), %rdi       # 8-byte Reload
	movq	12664(%rsp), %rsi       # 8-byte Reload
	movq	12600(%rsp), %rdx       # 8-byte Reload
	movq	12720(%rsp), %rcx       # 8-byte Reload
	movq	12608(%rsp), %r8        # 8-byte Reload
	movq	12720(%rsp), %r9        # 8-byte Reload
	movq	12960(%rsp), %rax       # 8-byte Reload
	movq	%rax, (%rsp)
	callq	trace_logger_log_int
	movq	12592(%rsp), %rdi       # 8-byte Reload
	movq	12664(%rsp), %rsi       # 8-byte Reload
	movq	12600(%rsp), %rdx       # 8-byte Reload
	movq	12680(%rsp), %rcx       # 8-byte Reload
	movq	12632(%rsp), %r8        # 8-byte Reload
	movq	12720(%rsp), %r9        # 8-byte Reload
	movq	12624(%rsp), %rax       # 8-byte Reload
	movq	%rax, (%rsp)
	callq	trace_logger_log_int
	movq	12656(%rsp), %rdi       # 8-byte Reload
	movq	12664(%rsp), %rsi       # 8-byte Reload
	movq	12976(%rsp), %rdx       # 8-byte Reload
	movq	12680(%rsp), %rcx       # 8-byte Reload
	movq	12584(%rsp), %r8        # 8-byte Reload
	movq	12720(%rsp), %r9        # 8-byte Reload
	movq	12576(%rsp), %rax       # 8-byte Reload
	movq	%rax, (%rsp)
	callq	trace_logger_log_int
	movq	12656(%rsp), %rdi       # 8-byte Reload
	movq	12664(%rsp), %rsi       # 8-byte Reload
	movq	12720(%rsp), %rdx       # 8-byte Reload
	movq	12680(%rsp), %rcx       # 8-byte Reload
	movq	12648(%rsp), %r8        # 8-byte Reload
	movq	12720(%rsp), %r9        # 8-byte Reload
	movq	12640(%rsp), %rax       # 8-byte Reload
	movq	%rax, (%rsp)
	callq	trace_logger_log_int
	movq	%rsp, %rax
	movq	$0, (%rax)
	movl	$filter, %esi
	movl	%esi, %edi
	movl	$65572, %esi            # imm = 0x10024
	movl	%esi, %ecx
	movl	$36, %esi
	movl	%esi, %eax
	movq	13536(%rsp), %rsi       # 8-byte Reload
	movq	%rax, %rdx
	movq	%rax, %r8
	movq	12976(%rsp), %r9        # 8-byte Reload
	callq	dmaLoad
	movabsq	$0, %rcx
	movabsq	$1, %rdx
	leaq	.L.str222, %r8
	leaq	.L.str223, %rsi
	movabsq	$22, %rdi
	leaq	.L.str219, %r9
	leaq	.L.str220, %r10
	leaq	.L.str221, %r11
	movabsq	$2, %rbx
	movl	$1, %ebp
	movabsq	$19134, %r14            # imm = 0x4ABE
	movabsq	$64, %r15
	leaq	.L.str217, %r12
	leaq	.L.str218, %r13
	movq	%rax, 12568(%rsp)       # 8-byte Spill
	leaq	.L.str215, %rax
	movq	%rax, 12560(%rsp)       # 8-byte Spill
	leaq	.L.str216, %rax
	movq	%rax, 12552(%rsp)       # 8-byte Spill
	movabsq	$36, %rax
	movq	%rax, 12544(%rsp)       # 8-byte Spill
	leaq	.L.str212, %rax
	movq	%rax, 12536(%rsp)       # 8-byte Spill
	leaq	.L.str213, %rax
	movq	%rax, 12528(%rsp)       # 8-byte Spill
	leaq	.L.str214, %rax
	movq	%rax, 12520(%rsp)       # 8-byte Spill
	movabsq	$44, %rax
	movq	%rax, 12512(%rsp)       # 8-byte Spill
	leaq	.L.str210, %rax
	movq	%rax, 12504(%rsp)       # 8-byte Spill
	leaq	.L.str211, %rax
	movq	%rax, 12496(%rsp)       # 8-byte Spill
	leaq	.L.str208, %rax
	movq	%rax, 12488(%rsp)       # 8-byte Spill
	leaq	.L.str209, %rax
	movq	%rax, 12480(%rsp)       # 8-byte Spill
	leaq	.L.str206, %rax
	movq	%rax, 12472(%rsp)       # 8-byte Spill
	leaq	.L.str207, %rax
	movq	%rax, 12464(%rsp)       # 8-byte Spill
	movabsq	$3, %rax
	movq	%rax, 12456(%rsp)       # 8-byte Spill
	movabsq	$32, %rax
	movq	%rax, 12448(%rsp)       # 8-byte Spill
	leaq	.L.str204, %rax
	movq	%rax, 12440(%rsp)       # 8-byte Spill
	leaq	.L.str205, %rax
	movq	%rax, 12432(%rsp)       # 8-byte Spill
	movabsq	$4, %rax
	movq	%rax, 12424(%rsp)       # 8-byte Spill
	leaq	.L.str202, %rax
	movq	%rax, 12416(%rsp)       # 8-byte Spill
	leaq	.L.str203, %rax
	movq	%rax, 12408(%rsp)       # 8-byte Spill
	leaq	.L.str199, %rax
	movq	%rax, 12400(%rsp)       # 8-byte Spill
	leaq	.L.str200, %rax
	movq	%rax, 12392(%rsp)       # 8-byte Spill
	leaq	.L.str201, %rax
	movq	%rax, 12384(%rsp)       # 8-byte Spill
	movabsq	$29, %rax
	movq	%rax, 12376(%rsp)       # 8-byte Spill
	leaq	.L.str197, %rax
	movq	%rax, 12368(%rsp)       # 8-byte Spill
	leaq	.L.str198, %rax
.Ltmp25:
	.loc	1 22 0                  # stencil.c:22:0
	movq	%rdi, 12360(%rsp)       # 8-byte Spill
	movq	%r14, %rdi
	movq	%rsi, 12352(%rsp)       # 8-byte Spill
	movq	%r15, %rsi
	movq	%rax, 12344(%rsp)       # 8-byte Spill
	movq	12568(%rsp), %rax       # 8-byte Reload
	movq	%rdx, 12336(%rsp)       # 8-byte Spill
	movq	%rax, %rdx
	movq	12336(%rsp), %rax       # 8-byte Reload
	movq	%rcx, 12328(%rsp)       # 8-byte Spill
	movq	%rax, %rcx
	movq	12368(%rsp), %rax       # 8-byte Reload
	movq	%r8, 12320(%rsp)        # 8-byte Spill
	movq	%rax, %r8
	movq	12328(%rsp), %rax       # 8-byte Reload
	movq	%r9, 12312(%rsp)        # 8-byte Spill
	movq	%rax, %r9
	movq	12344(%rsp), %rax       # 8-byte Reload
	movq	%rax, (%rsp)
	movq	%r14, 12304(%rsp)       # 8-byte Spill
	movq	%r15, 12296(%rsp)       # 8-byte Spill
	movl	%ebp, 12292(%rsp)       # 4-byte Spill
	movq	%r12, 12280(%rsp)       # 8-byte Spill
	movq	%r13, 12272(%rsp)       # 8-byte Spill
	movq	%rbx, 12264(%rsp)       # 8-byte Spill
	movq	%r10, 12256(%rsp)       # 8-byte Spill
	movq	%r11, 12248(%rsp)       # 8-byte Spill
	callq	trace_logger_log_int
.Ltmp26:
	#DEBUG_VALUE: it <- 0
	.loc	1 36 0                  # stencil.c:36:0
	movq	12544(%rsp), %rdi       # 8-byte Reload
	movq	12400(%rsp), %rsi       # 8-byte Reload
	movq	12392(%rsp), %rdx       # 8-byte Reload
	movq	12384(%rsp), %rcx       # 8-byte Reload
	movq	12376(%rsp), %r8        # 8-byte Reload
	movl	12292(%rsp), %r9d       # 4-byte Reload
	movl	$1, (%rsp)
	callq	trace_logger_log0
	movq	12424(%rsp), %rdi       # 8-byte Reload
	movq	12296(%rsp), %rsi       # 8-byte Reload
	movq	12328(%rsp), %rdx       # 8-byte Reload
	movq	12328(%rsp), %rcx       # 8-byte Reload
	movq	12416(%rsp), %r8        # 8-byte Reload
	movq	12328(%rsp), %r9        # 8-byte Reload
	movq	12408(%rsp), %rax       # 8-byte Reload
	movq	%rax, (%rsp)
	callq	trace_logger_log_int
	movq	12456(%rsp), %rdi       # 8-byte Reload
	movq	12448(%rsp), %rsi       # 8-byte Reload
	movq	12264(%rsp), %rdx       # 8-byte Reload
	movq	12328(%rsp), %rcx       # 8-byte Reload
	movq	12440(%rsp), %r8        # 8-byte Reload
	movq	12328(%rsp), %r9        # 8-byte Reload
	movq	12432(%rsp), %rax       # 8-byte Reload
	movq	%rax, (%rsp)
	callq	trace_logger_log_int
	movq	12264(%rsp), %rdi       # 8-byte Reload
	movq	12296(%rsp), %rsi       # 8-byte Reload
	movq	12328(%rsp), %rdx       # 8-byte Reload
	movq	12328(%rsp), %rcx       # 8-byte Reload
	movq	12472(%rsp), %r8        # 8-byte Reload
	movq	12328(%rsp), %r9        # 8-byte Reload
	movq	12464(%rsp), %rax       # 8-byte Reload
	movq	%rax, (%rsp)
	callq	trace_logger_log_int
	movq	12336(%rsp), %rdi       # 8-byte Reload
	movq	12296(%rsp), %rsi       # 8-byte Reload
	movq	14272(%rsp), %rdx       # 8-byte Reload
	movq	12336(%rsp), %rcx       # 8-byte Reload
	movq	12488(%rsp), %r8        # 8-byte Reload
	movq	12328(%rsp), %r9        # 8-byte Reload
	movq	12480(%rsp), %rax       # 8-byte Reload
	movq	%rax, (%rsp)
	callq	trace_logger_log_int
	movq	14272(%rsp), %rax       # 8-byte Reload
	addq	$32804, %rax            # imm = 0x8024
	movq	12304(%rsp), %rdi       # 8-byte Reload
	movq	12296(%rsp), %rsi       # 8-byte Reload
	movq	%rax, %rdx
	movq	12336(%rsp), %rcx       # 8-byte Reload
	movq	12504(%rsp), %r8        # 8-byte Reload
	movq	12328(%rsp), %r9        # 8-byte Reload
	movq	12496(%rsp), %r10       # 8-byte Reload
	movq	%r10, (%rsp)
	movq	%rax, 12240(%rsp)       # 8-byte Spill
	callq	trace_logger_log_int
	movq	12544(%rsp), %rdi       # 8-byte Reload
	movq	12536(%rsp), %rsi       # 8-byte Reload
	movq	12528(%rsp), %rdx       # 8-byte Reload
	movq	12520(%rsp), %rcx       # 8-byte Reload
	movq	12512(%rsp), %r8        # 8-byte Reload
	movl	12292(%rsp), %r9d       # 4-byte Reload
	movl	$1, (%rsp)
	callq	trace_logger_log0
	movq	12336(%rsp), %rdi       # 8-byte Reload
	movq	12296(%rsp), %rsi       # 8-byte Reload
	movq	12240(%rsp), %rdx       # 8-byte Reload
	movq	12336(%rsp), %rcx       # 8-byte Reload
	movq	12560(%rsp), %r8        # 8-byte Reload
	movq	12328(%rsp), %r9        # 8-byte Reload
	movq	12552(%rsp), %rax       # 8-byte Reload
	movq	%rax, (%rsp)
	callq	trace_logger_log_int
	movq	12240(%rsp), %rax       # 8-byte Reload
.Ltmp27:
	.loc	1 22 0                  # stencil.c:22:0
	movq	12304(%rsp), %rdi       # 8-byte Reload
	movq	12296(%rsp), %rsi       # 8-byte Reload
	movq	%rax, %rdx
	movq	12336(%rsp), %rcx       # 8-byte Reload
	movq	12280(%rsp), %r8        # 8-byte Reload
	movq	12328(%rsp), %r9        # 8-byte Reload
	movq	12272(%rsp), %r10       # 8-byte Reload
	movq	%r10, (%rsp)
	movq	%rax, 12232(%rsp)       # 8-byte Spill
	callq	trace_logger_log_int
	movq	12360(%rsp), %rdi       # 8-byte Reload
	movq	12312(%rsp), %rsi       # 8-byte Reload
	movq	12256(%rsp), %rdx       # 8-byte Reload
	movq	12248(%rsp), %rcx       # 8-byte Reload
	movq	12264(%rsp), %r8        # 8-byte Reload
	movl	12292(%rsp), %r9d       # 4-byte Reload
	movl	$1, (%rsp)
	callq	trace_logger_log0
	movq	12336(%rsp), %rdi       # 8-byte Reload
	movq	12328(%rsp), %rsi       # 8-byte Reload
	movq	12328(%rsp), %rdx       # 8-byte Reload
	movq	12336(%rsp), %rcx       # 8-byte Reload
	movq	12320(%rsp), %r8        # 8-byte Reload
	movq	12328(%rsp), %r9        # 8-byte Reload
	movq	12352(%rsp), %rax       # 8-byte Reload
	movq	%rax, (%rsp)
	callq	trace_logger_log_int
	movq	12328(%rsp), %rax       # 8-byte Reload
	movq	%rax, 12224(%rsp)       # 8-byte Spill
.Ltmp28:
.LBB0_1:                                # %.preheader14
                                        # =>This Loop Header: Depth=1
                                        #     Child Loop BB0_2 Depth 2
                                        #       Child Loop BB0_3 Depth 3
                                        #         Child Loop BB0_4 Depth 4
                                        #           Child Loop BB0_5 Depth 5
                                        #     Child Loop BB0_11 Depth 2
                                        #       Child Loop BB0_12 Depth 3
                                        #         Child Loop BB0_13 Depth 4
                                        #           Child Loop BB0_14 Depth 5
	movq	12224(%rsp), %rax       # 8-byte Reload
	movabsq	$0, %rcx
	movabsq	$1, %rdx
	leaq	.L.str236, %r8
	leaq	.L.str237, %rsi
	movabsq	$23, %rdi
	leaq	.L.str233, %r9
	leaq	.L.str234, %r10
	leaq	.L.str235, %r11
	movabsq	$2, %rbx
	movl	$1, %ebp
	movabsq	$19134, %r14            # imm = 0x4ABE
	movabsq	$64, %r15
	leaq	.L.str231, %r12
	leaq	.L.str232, %r13
	movq	%rax, 12216(%rsp)       # 8-byte Spill
	leaq	.L.str229, %rax
	movq	%rax, 12208(%rsp)       # 8-byte Spill
	leaq	.L.str230, %rax
	movq	%rax, 12200(%rsp)       # 8-byte Spill
	leaq	.L.str227, %rax
	movq	%rax, 12192(%rsp)       # 8-byte Spill
	leaq	.L.str228, %rax
	movq	%rax, 12184(%rsp)       # 8-byte Spill
	movabsq	$-1, %rax
	movq	%rax, 12176(%rsp)       # 8-byte Spill
	leaq	.L.str224, %rax
	movq	%rax, 12168(%rsp)       # 8-byte Spill
	leaq	.L.str225, %rax
	movq	%rax, 12160(%rsp)       # 8-byte Spill
	leaq	.L.str226, %rax
	movq	%rax, 12152(%rsp)       # 8-byte Spill
	movabsq	$48, %rax
	.loc	1 23 0                  # stencil.c:23:0
.Ltmp29:
	movq	%rax, 12144(%rsp)       # 8-byte Spill
	movq	12176(%rsp), %rax       # 8-byte Reload
	movq	%rdi, 12136(%rsp)       # 8-byte Spill
	movq	%rax, %rdi
	movq	12168(%rsp), %rax       # 8-byte Reload
	movq	%rsi, 12128(%rsp)       # 8-byte Spill
	movq	%rax, %rsi
	movq	12160(%rsp), %rax       # 8-byte Reload
	movq	%rdx, 12120(%rsp)       # 8-byte Spill
	movq	%rax, %rdx
	movq	12152(%rsp), %rax       # 8-byte Reload
	movq	%rcx, 12112(%rsp)       # 8-byte Spill
	movq	%rax, %rcx
	movq	12144(%rsp), %rax       # 8-byte Reload
	movq	%r8, 12104(%rsp)        # 8-byte Spill
	movq	%rax, %r8
	movq	%r9, 12096(%rsp)        # 8-byte Spill
	movl	%ebp, %r9d
	movl	$1, (%rsp)
	movq	%r14, 12088(%rsp)       # 8-byte Spill
	movq	%r15, 12080(%rsp)       # 8-byte Spill
	movl	%ebp, 12076(%rsp)       # 4-byte Spill
	movq	%r12, 12064(%rsp)       # 8-byte Spill
	movq	%r13, 12056(%rsp)       # 8-byte Spill
	movq	%rbx, 12048(%rsp)       # 8-byte Spill
	movq	%r10, 12040(%rsp)       # 8-byte Spill
	movq	%r11, 12032(%rsp)       # 8-byte Spill
	callq	trace_logger_log0
	movq	12048(%rsp), %rdi       # 8-byte Reload
	movq	12080(%rsp), %rsi       # 8-byte Reload
	movq	12112(%rsp), %rdx       # 8-byte Reload
	movq	12120(%rsp), %rcx       # 8-byte Reload
	movq	12192(%rsp), %r8        # 8-byte Reload
	movq	12120(%rsp), %r9        # 8-byte Reload
	movq	12184(%rsp), %rax       # 8-byte Reload
	movq	%rax, (%rsp)
	callq	trace_logger_log_int
	movq	12120(%rsp), %rdi       # 8-byte Reload
	movq	12080(%rsp), %rsi       # 8-byte Reload
	movq	12112(%rsp), %rdx       # 8-byte Reload
	movq	12112(%rsp), %rcx       # 8-byte Reload
	movq	12208(%rsp), %r8        # 8-byte Reload
	movq	12120(%rsp), %r9        # 8-byte Reload
	movq	12200(%rsp), %rax       # 8-byte Reload
	movq	%rax, (%rsp)
	callq	trace_logger_log_int
	movq	12088(%rsp), %rdi       # 8-byte Reload
	movq	12080(%rsp), %rsi       # 8-byte Reload
	movq	12216(%rsp), %rdx       # 8-byte Reload
	movq	12120(%rsp), %rcx       # 8-byte Reload
	movq	12064(%rsp), %r8        # 8-byte Reload
	movq	12112(%rsp), %r9        # 8-byte Reload
	movq	12056(%rsp), %rax       # 8-byte Reload
	movq	%rax, (%rsp)
	callq	trace_logger_log_int
	movq	12136(%rsp), %rdi       # 8-byte Reload
	movq	12096(%rsp), %rsi       # 8-byte Reload
	movq	12040(%rsp), %rdx       # 8-byte Reload
	movq	12032(%rsp), %rcx       # 8-byte Reload
	movq	12048(%rsp), %r8        # 8-byte Reload
	movl	12076(%rsp), %r9d       # 4-byte Reload
	movl	$1, (%rsp)
	callq	trace_logger_log0
	movq	12120(%rsp), %rdi       # 8-byte Reload
	movq	12112(%rsp), %rsi       # 8-byte Reload
	movq	12112(%rsp), %rdx       # 8-byte Reload
	movq	12120(%rsp), %rcx       # 8-byte Reload
	movq	12104(%rsp), %r8        # 8-byte Reload
	movq	12112(%rsp), %r9        # 8-byte Reload
	movq	12128(%rsp), %rax       # 8-byte Reload
	movq	%rax, (%rsp)
	callq	trace_logger_log_int
	movq	12112(%rsp), %rax       # 8-byte Reload
	movq	%rax, 12024(%rsp)       # 8-byte Spill
.LBB0_2:                                # %.preheader12
                                        #   Parent Loop BB0_1 Depth=1
                                        # =>  This Loop Header: Depth=2
                                        #       Child Loop BB0_3 Depth 3
                                        #         Child Loop BB0_4 Depth 4
                                        #           Child Loop BB0_5 Depth 5
	movq	12024(%rsp), %rax       # 8-byte Reload
	movabsq	$0, %rcx
	movabsq	$1, %rdx
	leaq	.L.str259, %r8
	leaq	.L.str260, %rsi
	movabsq	$24, %rdi
	leaq	.L.str256, %r9
	leaq	.L.str257, %r10
	leaq	.L.str258, %r11
	movabsq	$2, %rbx
	movl	$1, %ebp
	movabsq	$19134, %r14            # imm = 0x4ABE
	movabsq	$64, %r15
	leaq	.L.str254, %r12
	leaq	.L.str255, %r13
	movq	%rax, 12016(%rsp)       # 8-byte Spill
	leaq	.L.str252, %rax
	movq	%rax, 12008(%rsp)       # 8-byte Spill
	leaq	.L.str253, %rax
	movq	%rax, 12000(%rsp)       # 8-byte Spill
	movabsq	$6, %rax
	movq	%rax, 11992(%rsp)       # 8-byte Spill
	leaq	.L.str250, %rax
	movq	%rax, 11984(%rsp)       # 8-byte Spill
	leaq	.L.str251, %rax
	movq	%rax, 11976(%rsp)       # 8-byte Spill
	movabsq	$32, %rax
	movq	%rax, 11968(%rsp)       # 8-byte Spill
	leaq	.L.str247, %rax
	movq	%rax, 11960(%rsp)       # 8-byte Spill
	leaq	.L.str248, %rax
	movq	%rax, 11952(%rsp)       # 8-byte Spill
	leaq	.L.str249, %rax
	movq	%rax, 11944(%rsp)       # 8-byte Spill
	movabsq	$20, %rax
	movq	%rax, 11936(%rsp)       # 8-byte Spill
	leaq	.L.str245, %rax
	movq	%rax, 11928(%rsp)       # 8-byte Spill
	leaq	.L.str246, %rax
	movq	%rax, 11920(%rsp)       # 8-byte Spill
	leaq	.L.str243, %rax
	movq	%rax, 11912(%rsp)       # 8-byte Spill
	leaq	.L.str244, %rax
	movq	%rax, 11904(%rsp)       # 8-byte Spill
	leaq	.L.str241, %rax
	movq	%rax, 11896(%rsp)       # 8-byte Spill
	leaq	.L.str242, %rax
	movq	%rax, 11888(%rsp)       # 8-byte Spill
	movabsq	$-1, %rax
	movq	%rax, 11880(%rsp)       # 8-byte Spill
	leaq	.L.str238, %rax
	movq	%rax, 11872(%rsp)       # 8-byte Spill
	leaq	.L.str239, %rax
	movq	%rax, 11864(%rsp)       # 8-byte Spill
	leaq	.L.str240, %rax
	movq	%rax, 11856(%rsp)       # 8-byte Spill
	movabsq	$48, %rax
	.loc	1 32 0                  # stencil.c:32:0
.Ltmp30:
	movq	%rax, 11848(%rsp)       # 8-byte Spill
	movq	11880(%rsp), %rax       # 8-byte Reload
	movq	%rdi, 11840(%rsp)       # 8-byte Spill
	movq	%rax, %rdi
	movq	11872(%rsp), %rax       # 8-byte Reload
	movq	%rsi, 11832(%rsp)       # 8-byte Spill
	movq	%rax, %rsi
	movq	11864(%rsp), %rax       # 8-byte Reload
	movq	%rdx, 11824(%rsp)       # 8-byte Spill
	movq	%rax, %rdx
	movq	11856(%rsp), %rax       # 8-byte Reload
	movq	%rcx, 11816(%rsp)       # 8-byte Spill
	movq	%rax, %rcx
	movq	11848(%rsp), %rax       # 8-byte Reload
	movq	%r8, 11808(%rsp)        # 8-byte Spill
	movq	%rax, %r8
	movq	%r9, 11800(%rsp)        # 8-byte Spill
	movl	%ebp, %r9d
	movl	$1, (%rsp)
	movq	%r14, 11792(%rsp)       # 8-byte Spill
	movq	%r15, 11784(%rsp)       # 8-byte Spill
	movl	%ebp, 11780(%rsp)       # 4-byte Spill
	movq	%r12, 11768(%rsp)       # 8-byte Spill
	movq	%r13, 11760(%rsp)       # 8-byte Spill
	movq	%rbx, 11752(%rsp)       # 8-byte Spill
	movq	%r10, 11744(%rsp)       # 8-byte Spill
	movq	%r11, 11736(%rsp)       # 8-byte Spill
	callq	trace_logger_log0
	movq	11752(%rsp), %rdi       # 8-byte Reload
	movq	11784(%rsp), %rsi       # 8-byte Reload
	movq	11816(%rsp), %rdx       # 8-byte Reload
	movq	11824(%rsp), %rcx       # 8-byte Reload
	movq	11896(%rsp), %r8        # 8-byte Reload
	movq	11824(%rsp), %r9        # 8-byte Reload
	movq	11888(%rsp), %rax       # 8-byte Reload
	movq	%rax, (%rsp)
	callq	trace_logger_log_int
	movq	11824(%rsp), %rdi       # 8-byte Reload
	movq	11784(%rsp), %rsi       # 8-byte Reload
	movq	11816(%rsp), %rdx       # 8-byte Reload
	movq	11816(%rsp), %rcx       # 8-byte Reload
	movq	11912(%rsp), %r8        # 8-byte Reload
	movq	11824(%rsp), %r9        # 8-byte Reload
	movq	11904(%rsp), %rax       # 8-byte Reload
	movq	%rax, (%rsp)
	callq	trace_logger_log_int
	movq	11792(%rsp), %rdi       # 8-byte Reload
	movq	11784(%rsp), %rsi       # 8-byte Reload
	movq	12016(%rsp), %rdx       # 8-byte Reload
	movq	11824(%rsp), %rcx       # 8-byte Reload
	movq	11928(%rsp), %r8        # 8-byte Reload
	movq	11816(%rsp), %r9        # 8-byte Reload
	movq	11920(%rsp), %rax       # 8-byte Reload
	movq	%rax, (%rsp)
	callq	trace_logger_log_int
	movq	11968(%rsp), %rdi       # 8-byte Reload
	movq	11960(%rsp), %rsi       # 8-byte Reload
	movq	11952(%rsp), %rdx       # 8-byte Reload
	movq	11944(%rsp), %rcx       # 8-byte Reload
	movq	11936(%rsp), %r8        # 8-byte Reload
	movl	11780(%rsp), %r9d       # 4-byte Reload
	movl	$1, (%rsp)
	callq	trace_logger_log0
	movq	11752(%rsp), %rdi       # 8-byte Reload
	movq	11784(%rsp), %rsi       # 8-byte Reload
	movq	11992(%rsp), %rdx       # 8-byte Reload
	movq	11816(%rsp), %rcx       # 8-byte Reload
	movq	11984(%rsp), %r8        # 8-byte Reload
	movq	11816(%rsp), %r9        # 8-byte Reload
	movq	11976(%rsp), %rax       # 8-byte Reload
	movq	%rax, (%rsp)
	callq	trace_logger_log_int
	movq	11824(%rsp), %rdi       # 8-byte Reload
	movq	11784(%rsp), %rsi       # 8-byte Reload
	movq	12016(%rsp), %rdx       # 8-byte Reload
	movq	11824(%rsp), %rcx       # 8-byte Reload
	movq	12008(%rsp), %r8        # 8-byte Reload
	movq	11816(%rsp), %r9        # 8-byte Reload
	movq	12000(%rsp), %rax       # 8-byte Reload
	movq	%rax, (%rsp)
	callq	trace_logger_log_int
	movq	12016(%rsp), %rax       # 8-byte Reload
	shlq	$6, %rax
.Ltmp31:
	.loc	1 24 0                  # stencil.c:24:0
	movq	11792(%rsp), %rdi       # 8-byte Reload
	movq	11784(%rsp), %rsi       # 8-byte Reload
	movq	%rax, %rdx
	movq	11824(%rsp), %rcx       # 8-byte Reload
	movq	11768(%rsp), %r8        # 8-byte Reload
	movq	11816(%rsp), %r9        # 8-byte Reload
	movq	11760(%rsp), %r10       # 8-byte Reload
	movq	%r10, (%rsp)
	movq	%rax, 11728(%rsp)       # 8-byte Spill
	callq	trace_logger_log_int
	movq	11840(%rsp), %rdi       # 8-byte Reload
	movq	11800(%rsp), %rsi       # 8-byte Reload
	movq	11744(%rsp), %rdx       # 8-byte Reload
	movq	11736(%rsp), %rcx       # 8-byte Reload
	movq	11752(%rsp), %r8        # 8-byte Reload
	movl	11780(%rsp), %r9d       # 4-byte Reload
	movl	$1, (%rsp)
	callq	trace_logger_log0
	movq	11824(%rsp), %rdi       # 8-byte Reload
	movq	11816(%rsp), %rsi       # 8-byte Reload
	movq	11816(%rsp), %rdx       # 8-byte Reload
	movq	11824(%rsp), %rcx       # 8-byte Reload
	movq	11808(%rsp), %r8        # 8-byte Reload
	movq	11816(%rsp), %r9        # 8-byte Reload
	movq	11832(%rsp), %rax       # 8-byte Reload
	movq	%rax, (%rsp)
	callq	trace_logger_log_int
	movq	11816(%rsp), %rax       # 8-byte Reload
	movq	%rax, 11720(%rsp)       # 8-byte Spill
.LBB0_3:                                # %.preheader9
                                        #   Parent Loop BB0_1 Depth=1
                                        #     Parent Loop BB0_2 Depth=2
                                        # =>    This Loop Header: Depth=3
                                        #         Child Loop BB0_4 Depth 4
                                        #           Child Loop BB0_5 Depth 5
	movq	11720(%rsp), %rax       # 8-byte Reload
	movabsq	$0, %rcx
	movl	$0, %edx
	movabsq	$1, %rsi
	leaq	.L.str273, %r8
	leaq	.L.str274, %rdi
	movabsq	$26, %r9
	leaq	.L.str270, %r10
	leaq	.L.str271, %r11
	leaq	.L.str272, %rbx
	movabsq	$2, %r14
	movl	$1, %ebp
	movabsq	$19134, %r15            # imm = 0x4ABE
	movabsq	$64, %r12
	leaq	.L.str268, %r13
	movq	%rax, 11712(%rsp)       # 8-byte Spill
	leaq	.L.str269, %rax
	movq	%rax, 11704(%rsp)       # 8-byte Spill
	leaq	.L.str266, %rax
	movq	%rax, 11696(%rsp)       # 8-byte Spill
	leaq	.L.str267, %rax
	movq	%rax, 11688(%rsp)       # 8-byte Spill
	leaq	.L.str264, %rax
	movq	%rax, 11680(%rsp)       # 8-byte Spill
	leaq	.L.str265, %rax
	movq	%rax, 11672(%rsp)       # 8-byte Spill
	movabsq	$-1, %rax
	movq	%rax, 11664(%rsp)       # 8-byte Spill
	leaq	.L.str261, %rax
	movq	%rax, 11656(%rsp)       # 8-byte Spill
	leaq	.L.str262, %rax
	movq	%rax, 11648(%rsp)       # 8-byte Spill
	leaq	.L.str263, %rax
	movq	%rax, 11640(%rsp)       # 8-byte Spill
	movabsq	$48, %rax
	.loc	1 26 0                  # stencil.c:26:0
.Ltmp32:
	movq	%rax, 11632(%rsp)       # 8-byte Spill
	movq	11664(%rsp), %rax       # 8-byte Reload
	movq	%rdi, 11624(%rsp)       # 8-byte Spill
	movq	%rax, %rdi
	movq	11656(%rsp), %rax       # 8-byte Reload
	movq	%rsi, 11616(%rsp)       # 8-byte Spill
	movq	%rax, %rsi
	movq	11648(%rsp), %rax       # 8-byte Reload
	movl	%edx, 11612(%rsp)       # 4-byte Spill
	movq	%rax, %rdx
	movq	11640(%rsp), %rax       # 8-byte Reload
	movq	%rcx, 11600(%rsp)       # 8-byte Spill
	movq	%rax, %rcx
	movq	11632(%rsp), %rax       # 8-byte Reload
	movq	%r8, 11592(%rsp)        # 8-byte Spill
	movq	%rax, %r8
	movq	%r9, 11584(%rsp)        # 8-byte Spill
	movl	%ebp, %r9d
	movl	$1, (%rsp)
	movl	%ebp, 11580(%rsp)       # 4-byte Spill
	movq	%r15, 11568(%rsp)       # 8-byte Spill
	movq	%r12, 11560(%rsp)       # 8-byte Spill
	movq	%r14, 11552(%rsp)       # 8-byte Spill
	movq	%r13, 11544(%rsp)       # 8-byte Spill
	movq	%rbx, 11536(%rsp)       # 8-byte Spill
	movq	%r10, 11528(%rsp)       # 8-byte Spill
	movq	%r11, 11520(%rsp)       # 8-byte Spill
	callq	trace_logger_log0
	movq	11552(%rsp), %rdi       # 8-byte Reload
	movq	11560(%rsp), %rsi       # 8-byte Reload
	movq	11600(%rsp), %rdx       # 8-byte Reload
	movq	11616(%rsp), %rcx       # 8-byte Reload
	movq	11680(%rsp), %r8        # 8-byte Reload
	movq	11616(%rsp), %r9        # 8-byte Reload
	movq	11672(%rsp), %rax       # 8-byte Reload
	movq	%rax, (%rsp)
	callq	trace_logger_log_int
	movq	11616(%rsp), %rdi       # 8-byte Reload
	movq	11560(%rsp), %rsi       # 8-byte Reload
	movq	11600(%rsp), %rdx       # 8-byte Reload
	movq	11600(%rsp), %rcx       # 8-byte Reload
	movq	11696(%rsp), %r8        # 8-byte Reload
	movq	11616(%rsp), %r9        # 8-byte Reload
	movq	11688(%rsp), %rax       # 8-byte Reload
	movq	%rax, (%rsp)
	callq	trace_logger_log_int
	movq	11568(%rsp), %rdi       # 8-byte Reload
	movq	11560(%rsp), %rsi       # 8-byte Reload
	movq	11712(%rsp), %rdx       # 8-byte Reload
	movq	11616(%rsp), %rcx       # 8-byte Reload
	movq	11544(%rsp), %r8        # 8-byte Reload
	movq	11600(%rsp), %r9        # 8-byte Reload
	movq	11704(%rsp), %rax       # 8-byte Reload
	movq	%rax, (%rsp)
	callq	trace_logger_log_int
	movq	11584(%rsp), %rdi       # 8-byte Reload
	movq	11528(%rsp), %rsi       # 8-byte Reload
	movq	11520(%rsp), %rdx       # 8-byte Reload
	movq	11536(%rsp), %rcx       # 8-byte Reload
	movq	11552(%rsp), %r8        # 8-byte Reload
	movl	11580(%rsp), %r9d       # 4-byte Reload
	movl	$1, (%rsp)
	callq	trace_logger_log0
	movq	11616(%rsp), %rdi       # 8-byte Reload
	movq	11600(%rsp), %rsi       # 8-byte Reload
	movq	11600(%rsp), %rdx       # 8-byte Reload
	movq	11616(%rsp), %rcx       # 8-byte Reload
	movq	11592(%rsp), %r8        # 8-byte Reload
	movq	11600(%rsp), %r9        # 8-byte Reload
	movq	11624(%rsp), %rax       # 8-byte Reload
	movq	%rax, (%rsp)
	callq	trace_logger_log_int
	movq	11600(%rsp), %rax       # 8-byte Reload
	movl	11612(%rsp), %ebp       # 4-byte Reload
	movq	%rax, 11512(%rsp)       # 8-byte Spill
	movl	%ebp, 11508(%rsp)       # 4-byte Spill
.LBB0_4:                                # %.preheader
                                        #   Parent Loop BB0_1 Depth=1
                                        #     Parent Loop BB0_2 Depth=2
                                        #       Parent Loop BB0_3 Depth=3
                                        # =>      This Loop Header: Depth=4
                                        #           Child Loop BB0_5 Depth 5
	movl	11508(%rsp), %eax       # 4-byte Reload
	movq	11512(%rsp), %rcx       # 8-byte Reload
	movabsq	$0, %rdx
	movabsq	$1, %rsi
	leaq	.L.str332, %r8
	leaq	.L.str333, %rdi
	movabsq	$27, %r9
	leaq	.L.str329, %r10
	leaq	.L.str330, %r11
	leaq	.L.str331, %rbx
	movabsq	$2, %r14
	movl	$1, %ebp
	movabsq	$19134, %r15            # imm = 0x4ABE
	movabsq	$64, %r12
	leaq	.L.str327, %r13
	movq	%rcx, 11496(%rsp)       # 8-byte Spill
	leaq	.L.str328, %rcx
	movq	%rcx, 11488(%rsp)       # 8-byte Spill
	leaq	.L.str325, %rcx
	movq	%rcx, 11480(%rsp)       # 8-byte Spill
	leaq	.L.str326, %rcx
	movq	%rcx, 11472(%rsp)       # 8-byte Spill
	leaq	.L.str323, %rcx
	movq	%rcx, 11464(%rsp)       # 8-byte Spill
	leaq	.L.str324, %rcx
	movq	%rcx, 11456(%rsp)       # 8-byte Spill
	movabsq	$28, %rcx
	movq	%rcx, 11448(%rsp)       # 8-byte Spill
	leaq	.L.str320, %rcx
	movq	%rcx, 11440(%rsp)       # 8-byte Spill
	leaq	.L.str321, %rcx
	movq	%rcx, 11432(%rsp)       # 8-byte Spill
	leaq	.L.str322, %rcx
	movq	%rcx, 11424(%rsp)       # 8-byte Spill
	movabsq	$8, %rcx
	movq	%rcx, 11416(%rsp)       # 8-byte Spill
	leaq	.L.str318, %rcx
	movq	%rcx, 11408(%rsp)       # 8-byte Spill
	leaq	.L.str319, %rcx
	movq	%rcx, 11400(%rsp)       # 8-byte Spill
	leaq	.L.str316, %rcx
	movq	%rcx, 11392(%rsp)       # 8-byte Spill
	leaq	.L.str317, %rcx
	movq	%rcx, 11384(%rsp)       # 8-byte Spill
	movabsq	$6, %rcx
	movq	%rcx, 11376(%rsp)       # 8-byte Spill
	leaq	.L.str314, %rcx
	movq	%rcx, 11368(%rsp)       # 8-byte Spill
	leaq	.L.str315, %rcx
	movq	%rcx, 11360(%rsp)       # 8-byte Spill
	leaq	.L.str311, %rcx
	movq	%rcx, 11352(%rsp)       # 8-byte Spill
	leaq	.L.str312, %rcx
	movq	%rcx, 11344(%rsp)       # 8-byte Spill
	leaq	.L.str313, %rcx
	movq	%rcx, 11336(%rsp)       # 8-byte Spill
	movabsq	$20, %rcx
	movq	%rcx, 11328(%rsp)       # 8-byte Spill
	leaq	.L.str309, %rcx
	movq	%rcx, 11320(%rsp)       # 8-byte Spill
	leaq	.L.str310, %rcx
	movq	%rcx, 11312(%rsp)       # 8-byte Spill
	leaq	.L.str307, %rcx
	movq	%rcx, 11304(%rsp)       # 8-byte Spill
	leaq	.L.str308, %rcx
	movq	%rcx, 11296(%rsp)       # 8-byte Spill
	leaq	.L.str305, %rcx
	movq	%rcx, 11288(%rsp)       # 8-byte Spill
	leaq	.L.str306, %rcx
	movq	%rcx, 11280(%rsp)       # 8-byte Spill
	leaq	.L.str302, %rcx
	movq	%rcx, 11272(%rsp)       # 8-byte Spill
	leaq	.L.str303, %rcx
	movq	%rcx, 11264(%rsp)       # 8-byte Spill
	leaq	.L.str304, %rcx
	movq	%rcx, 11256(%rsp)       # 8-byte Spill
	leaq	.L.str300, %rcx
	movq	%rcx, 11248(%rsp)       # 8-byte Spill
	leaq	.L.str301, %rcx
	movq	%rcx, 11240(%rsp)       # 8-byte Spill
	leaq	.L.str298, %rcx
	movq	%rcx, 11232(%rsp)       # 8-byte Spill
	leaq	.L.str299, %rcx
	movq	%rcx, 11224(%rsp)       # 8-byte Spill
	movabsq	$3, %rcx
	movq	%rcx, 11216(%rsp)       # 8-byte Spill
	leaq	.L.str296, %rcx
	movq	%rcx, 11208(%rsp)       # 8-byte Spill
	leaq	.L.str297, %rcx
	movq	%rcx, 11200(%rsp)       # 8-byte Spill
	leaq	.L.str293, %rcx
	movq	%rcx, 11192(%rsp)       # 8-byte Spill
	leaq	.L.str294, %rcx
	movq	%rcx, 11184(%rsp)       # 8-byte Spill
	leaq	.L.str295, %rcx
	movq	%rcx, 11176(%rsp)       # 8-byte Spill
	movabsq	$12, %rcx
	movq	%rcx, 11168(%rsp)       # 8-byte Spill
	movabsq	$32, %rcx
	movq	%rcx, 11160(%rsp)       # 8-byte Spill
	leaq	.L.str291, %rcx
	movq	%rcx, 11152(%rsp)       # 8-byte Spill
	leaq	.L.str292, %rcx
	movq	%rcx, 11144(%rsp)       # 8-byte Spill
	leaq	.L.str289, %rcx
	movq	%rcx, 11136(%rsp)       # 8-byte Spill
	leaq	.L.str290, %rcx
	movq	%rcx, 11128(%rsp)       # 8-byte Spill
	leaq	.L.str287, %rcx
	movq	%rcx, 11120(%rsp)       # 8-byte Spill
	leaq	.L.str288, %rcx
	movq	%rcx, 11112(%rsp)       # 8-byte Spill
	movabsq	$-1, %rcx
	movq	%rcx, 11104(%rsp)       # 8-byte Spill
	leaq	.L.str284, %rcx
	movq	%rcx, 11096(%rsp)       # 8-byte Spill
	leaq	.L.str285, %rcx
	movq	%rcx, 11088(%rsp)       # 8-byte Spill
	leaq	.L.str286, %rcx
	movq	%rcx, 11080(%rsp)       # 8-byte Spill
	movabsq	$48, %rcx
	movq	%rcx, 11072(%rsp)       # 8-byte Spill
	leaq	.L.str282, %rcx
	movq	%rcx, 11064(%rsp)       # 8-byte Spill
	leaq	.L.str283, %rcx
	movq	%rcx, 11056(%rsp)       # 8-byte Spill
	leaq	.L.str280, %rcx
	movq	%rcx, 11048(%rsp)       # 8-byte Spill
	leaq	.L.str281, %rcx
	movq	%rcx, 11040(%rsp)       # 8-byte Spill
	leaq	.L.str278, %rcx
	movq	%rcx, 11032(%rsp)       # 8-byte Spill
	leaq	.L.str279, %rcx
	movq	%rcx, 11024(%rsp)       # 8-byte Spill
	leaq	.L.str275, %rcx
	movq	%rcx, 11016(%rsp)       # 8-byte Spill
	leaq	.L.str276, %rcx
	movq	%rcx, 11008(%rsp)       # 8-byte Spill
	leaq	.L.str277, %rcx
	.loc	1 28 0                  # stencil.c:28:0
.Ltmp33:
	movq	%rcx, 11000(%rsp)       # 8-byte Spill
	movq	11104(%rsp), %rcx       # 8-byte Reload
	movq	%rdi, 10992(%rsp)       # 8-byte Spill
	movq	%rcx, %rdi
	movq	11016(%rsp), %rcx       # 8-byte Reload
	movq	%rsi, 10984(%rsp)       # 8-byte Spill
	movq	%rcx, %rsi
	movq	11008(%rsp), %rcx       # 8-byte Reload
	movq	%rdx, 10976(%rsp)       # 8-byte Spill
	movq	%rcx, %rdx
	movq	11000(%rsp), %rcx       # 8-byte Reload
	movq	%r8, 10968(%rsp)        # 8-byte Spill
	movq	11072(%rsp), %r8        # 8-byte Reload
	movq	%r9, 10960(%rsp)        # 8-byte Spill
	movl	%ebp, %r9d
	movl	$1, (%rsp)
	movl	%eax, 10956(%rsp)       # 4-byte Spill
	movl	%ebp, 10952(%rsp)       # 4-byte Spill
	movq	%r15, 10944(%rsp)       # 8-byte Spill
	movq	%r12, 10936(%rsp)       # 8-byte Spill
	movq	%r14, 10928(%rsp)       # 8-byte Spill
	movq	%r13, 10920(%rsp)       # 8-byte Spill
	movq	%rbx, 10912(%rsp)       # 8-byte Spill
	movq	%r10, 10904(%rsp)       # 8-byte Spill
	movq	%r11, 10896(%rsp)       # 8-byte Spill
	callq	trace_logger_log0
	movq	10928(%rsp), %rdi       # 8-byte Reload
	movq	10936(%rsp), %rsi       # 8-byte Reload
	movq	10976(%rsp), %rdx       # 8-byte Reload
	movq	10984(%rsp), %rcx       # 8-byte Reload
	movq	11032(%rsp), %r8        # 8-byte Reload
	movq	10984(%rsp), %r9        # 8-byte Reload
	movq	11024(%rsp), %r10       # 8-byte Reload
	movq	%r10, (%rsp)
	callq	trace_logger_log_int
	movq	10984(%rsp), %rdi       # 8-byte Reload
	movq	10936(%rsp), %rsi       # 8-byte Reload
	movq	10976(%rsp), %rdx       # 8-byte Reload
	movq	10976(%rsp), %rcx       # 8-byte Reload
	movq	11048(%rsp), %r8        # 8-byte Reload
	movq	10984(%rsp), %r9        # 8-byte Reload
	movq	11040(%rsp), %r10       # 8-byte Reload
	movq	%r10, (%rsp)
	callq	trace_logger_log_int
	movq	10944(%rsp), %rdi       # 8-byte Reload
	movq	10936(%rsp), %rsi       # 8-byte Reload
	movq	11496(%rsp), %rdx       # 8-byte Reload
	movq	10984(%rsp), %rcx       # 8-byte Reload
	movq	11064(%rsp), %r8        # 8-byte Reload
	movq	10976(%rsp), %r9        # 8-byte Reload
	movq	11056(%rsp), %r10       # 8-byte Reload
	movq	%r10, (%rsp)
	callq	trace_logger_log_int
	movq	11104(%rsp), %rdi       # 8-byte Reload
	movq	11096(%rsp), %rsi       # 8-byte Reload
	movq	11088(%rsp), %rdx       # 8-byte Reload
	movq	11080(%rsp), %rcx       # 8-byte Reload
	movq	11072(%rsp), %r8        # 8-byte Reload
	movl	10952(%rsp), %r9d       # 4-byte Reload
	movl	$1, (%rsp)
	callq	trace_logger_log0
	movq	10928(%rsp), %rdi       # 8-byte Reload
	movq	11160(%rsp), %rsi       # 8-byte Reload
	movq	10976(%rsp), %rdx       # 8-byte Reload
	movq	10984(%rsp), %rcx       # 8-byte Reload
	movq	11120(%rsp), %r8        # 8-byte Reload
	movq	10984(%rsp), %r9        # 8-byte Reload
	movq	11112(%rsp), %r10       # 8-byte Reload
	movq	%r10, (%rsp)
	callq	trace_logger_log_int
	movq	10984(%rsp), %rdi       # 8-byte Reload
	movq	11160(%rsp), %rsi       # 8-byte Reload
	movq	10976(%rsp), %rdx       # 8-byte Reload
	movq	10976(%rsp), %rcx       # 8-byte Reload
	movq	11136(%rsp), %r8        # 8-byte Reload
	movq	10984(%rsp), %r9        # 8-byte Reload
	movq	11128(%rsp), %r10       # 8-byte Reload
	movq	%r10, (%rsp)
	callq	trace_logger_log_int
	movl	10956(%rsp), %eax       # 4-byte Reload
	movl	%eax, %ebp
	movl	%ebp, %edx
	movq	10944(%rsp), %rdi       # 8-byte Reload
	movq	11160(%rsp), %rsi       # 8-byte Reload
	movq	10984(%rsp), %rcx       # 8-byte Reload
	movq	11152(%rsp), %r8        # 8-byte Reload
	movq	10976(%rsp), %r9        # 8-byte Reload
	movq	11144(%rsp), %r10       # 8-byte Reload
	movq	%r10, (%rsp)
	callq	trace_logger_log_int
	movq	11448(%rsp), %rdi       # 8-byte Reload
	movq	11192(%rsp), %rsi       # 8-byte Reload
	movq	11184(%rsp), %rdx       # 8-byte Reload
	movq	11176(%rsp), %rcx       # 8-byte Reload
	movq	11168(%rsp), %r8        # 8-byte Reload
	movl	10952(%rsp), %r9d       # 4-byte Reload
	movl	$1, (%rsp)
	callq	trace_logger_log0
	movq	10928(%rsp), %rdi       # 8-byte Reload
	movq	10936(%rsp), %rsi       # 8-byte Reload
	movq	11216(%rsp), %rdx       # 8-byte Reload
	movq	10976(%rsp), %rcx       # 8-byte Reload
	movq	11208(%rsp), %r8        # 8-byte Reload
	movq	10976(%rsp), %r9        # 8-byte Reload
	movq	11200(%rsp), %r10       # 8-byte Reload
	movq	%r10, (%rsp)
	callq	trace_logger_log_int
	movq	10984(%rsp), %rdi       # 8-byte Reload
	movq	10936(%rsp), %rsi       # 8-byte Reload
	movq	11496(%rsp), %rdx       # 8-byte Reload
	movq	10984(%rsp), %rcx       # 8-byte Reload
	movq	11232(%rsp), %r8        # 8-byte Reload
	movq	10976(%rsp), %r9        # 8-byte Reload
	movq	11224(%rsp), %r10       # 8-byte Reload
	movq	%r10, (%rsp)
	callq	trace_logger_log_int
	movq	11496(%rsp), %rcx       # 8-byte Reload
	imulq	$3, %rcx, %rdx
	movq	10944(%rsp), %rdi       # 8-byte Reload
	movq	10936(%rsp), %rsi       # 8-byte Reload
	movq	%rdx, 10888(%rsp)       # 8-byte Spill
	movq	10984(%rsp), %rcx       # 8-byte Reload
	movq	11248(%rsp), %r8        # 8-byte Reload
	movq	10976(%rsp), %r9        # 8-byte Reload
	movq	11240(%rsp), %r10       # 8-byte Reload
	movq	%r10, (%rsp)
	callq	trace_logger_log_int
	movq	11448(%rsp), %rdi       # 8-byte Reload
	movq	11272(%rsp), %rsi       # 8-byte Reload
	movq	11264(%rsp), %rdx       # 8-byte Reload
	movq	11256(%rsp), %rcx       # 8-byte Reload
	movq	11416(%rsp), %r8        # 8-byte Reload
	movl	10952(%rsp), %r9d       # 4-byte Reload
	movl	$1, (%rsp)
	callq	trace_logger_log0
	movq	10928(%rsp), %rdi       # 8-byte Reload
	movq	10936(%rsp), %rsi       # 8-byte Reload
	movq	12016(%rsp), %rdx       # 8-byte Reload
	movq	10984(%rsp), %rcx       # 8-byte Reload
	movq	11288(%rsp), %r8        # 8-byte Reload
	movq	10976(%rsp), %r9        # 8-byte Reload
	movq	11280(%rsp), %r10       # 8-byte Reload
	movq	%r10, (%rsp)
	callq	trace_logger_log_int
	movq	10984(%rsp), %rdi       # 8-byte Reload
	movq	10936(%rsp), %rsi       # 8-byte Reload
	movq	11496(%rsp), %rdx       # 8-byte Reload
	movq	10984(%rsp), %rcx       # 8-byte Reload
	movq	11304(%rsp), %r8        # 8-byte Reload
	movq	10976(%rsp), %r9        # 8-byte Reload
	movq	11296(%rsp), %r10       # 8-byte Reload
	movq	%r10, (%rsp)
	callq	trace_logger_log_int
	movq	11496(%rsp), %rcx       # 8-byte Reload
	movq	12016(%rsp), %rdx       # 8-byte Reload
	addq	%rdx, %rcx
	movq	10944(%rsp), %rdi       # 8-byte Reload
	movq	10936(%rsp), %rsi       # 8-byte Reload
	movq	%rcx, %rdx
	movq	10984(%rsp), %r8        # 8-byte Reload
	movq	%rcx, 10880(%rsp)       # 8-byte Spill
	movq	%r8, %rcx
	movq	11320(%rsp), %r8        # 8-byte Reload
	movq	10976(%rsp), %r9        # 8-byte Reload
	movq	11312(%rsp), %r10       # 8-byte Reload
	movq	%r10, (%rsp)
	callq	trace_logger_log_int
	movq	11448(%rsp), %rdi       # 8-byte Reload
	movq	11352(%rsp), %rsi       # 8-byte Reload
	movq	11344(%rsp), %rdx       # 8-byte Reload
	movq	11336(%rsp), %rcx       # 8-byte Reload
	movq	11328(%rsp), %r8        # 8-byte Reload
	movl	10952(%rsp), %r9d       # 4-byte Reload
	movl	$1, (%rsp)
	callq	trace_logger_log0
	movq	10928(%rsp), %rdi       # 8-byte Reload
	movq	10936(%rsp), %rsi       # 8-byte Reload
	movq	11376(%rsp), %rdx       # 8-byte Reload
	movq	10976(%rsp), %rcx       # 8-byte Reload
	movq	11368(%rsp), %r8        # 8-byte Reload
	movq	10976(%rsp), %r9        # 8-byte Reload
	movq	11360(%rsp), %r10       # 8-byte Reload
	movq	%r10, (%rsp)
	callq	trace_logger_log_int
	movq	10984(%rsp), %rdi       # 8-byte Reload
	movq	10936(%rsp), %rsi       # 8-byte Reload
	movq	10880(%rsp), %rdx       # 8-byte Reload
	movq	10984(%rsp), %rcx       # 8-byte Reload
	movq	11392(%rsp), %r8        # 8-byte Reload
	movq	10976(%rsp), %r9        # 8-byte Reload
	movq	11384(%rsp), %r10       # 8-byte Reload
	movq	%r10, (%rsp)
	callq	trace_logger_log_int
	movq	10880(%rsp), %rcx       # 8-byte Reload
	shlq	$6, %rcx
	movq	10944(%rsp), %rdi       # 8-byte Reload
	movq	10936(%rsp), %rsi       # 8-byte Reload
	movq	%rcx, %rdx
	movq	10984(%rsp), %r8        # 8-byte Reload
	movq	%rcx, 10872(%rsp)       # 8-byte Spill
	movq	%r8, %rcx
	movq	11408(%rsp), %r8        # 8-byte Reload
	movq	10976(%rsp), %r9        # 8-byte Reload
	movq	11400(%rsp), %r10       # 8-byte Reload
	movq	%r10, (%rsp)
	callq	trace_logger_log_int
	movq	11448(%rsp), %rdi       # 8-byte Reload
	movq	11440(%rsp), %rsi       # 8-byte Reload
	movq	11432(%rsp), %rdx       # 8-byte Reload
	movq	11424(%rsp), %rcx       # 8-byte Reload
	movq	11416(%rsp), %r8        # 8-byte Reload
	movl	10952(%rsp), %r9d       # 4-byte Reload
	movl	$1, (%rsp)
	callq	trace_logger_log0
	movq	10928(%rsp), %rdi       # 8-byte Reload
	movq	10936(%rsp), %rsi       # 8-byte Reload
	movq	11712(%rsp), %rdx       # 8-byte Reload
	movq	10984(%rsp), %rcx       # 8-byte Reload
	movq	11464(%rsp), %r8        # 8-byte Reload
	movq	10976(%rsp), %r9        # 8-byte Reload
	movq	11456(%rsp), %r10       # 8-byte Reload
	movq	%r10, (%rsp)
	callq	trace_logger_log_int
	movq	10984(%rsp), %rdi       # 8-byte Reload
	movq	10936(%rsp), %rsi       # 8-byte Reload
	movq	10872(%rsp), %rdx       # 8-byte Reload
	movq	10984(%rsp), %rcx       # 8-byte Reload
	movq	11480(%rsp), %r8        # 8-byte Reload
	movq	10976(%rsp), %r9        # 8-byte Reload
	movq	11472(%rsp), %r10       # 8-byte Reload
	movq	%r10, (%rsp)
	callq	trace_logger_log_int
	movq	10872(%rsp), %rcx       # 8-byte Reload
	movq	11712(%rsp), %rdx       # 8-byte Reload
	addq	%rdx, %rcx
.Ltmp34:
	.loc	1 27 0                  # stencil.c:27:0
	movq	10944(%rsp), %rdi       # 8-byte Reload
	movq	10936(%rsp), %rsi       # 8-byte Reload
	movq	%rcx, %rdx
	movq	10984(%rsp), %r8        # 8-byte Reload
	movq	%rcx, 10864(%rsp)       # 8-byte Spill
	movq	%r8, %rcx
	movq	10920(%rsp), %r8        # 8-byte Reload
	movq	10976(%rsp), %r9        # 8-byte Reload
	movq	11488(%rsp), %r10       # 8-byte Reload
	movq	%r10, (%rsp)
	callq	trace_logger_log_int
	movq	10960(%rsp), %rdi       # 8-byte Reload
	movq	10904(%rsp), %rsi       # 8-byte Reload
	movq	10896(%rsp), %rdx       # 8-byte Reload
	movq	10912(%rsp), %rcx       # 8-byte Reload
	movq	10928(%rsp), %r8        # 8-byte Reload
	movl	10952(%rsp), %r9d       # 4-byte Reload
	movl	$1, (%rsp)
	callq	trace_logger_log0
	movq	10984(%rsp), %rdi       # 8-byte Reload
	movq	10976(%rsp), %rsi       # 8-byte Reload
	movq	10976(%rsp), %rdx       # 8-byte Reload
	movq	10984(%rsp), %rcx       # 8-byte Reload
	movq	10968(%rsp), %r8        # 8-byte Reload
	movq	10976(%rsp), %r9        # 8-byte Reload
	movq	10992(%rsp), %r10       # 8-byte Reload
	movq	%r10, (%rsp)
	callq	trace_logger_log_int
	movq	10976(%rsp), %rcx       # 8-byte Reload
	movl	10956(%rsp), %eax       # 4-byte Reload
	movq	%rcx, 10856(%rsp)       # 8-byte Spill
	movl	%eax, 10852(%rsp)       # 4-byte Spill
.LBB0_5:                                #   Parent Loop BB0_1 Depth=1
                                        #     Parent Loop BB0_2 Depth=2
                                        #       Parent Loop BB0_3 Depth=3
                                        #         Parent Loop BB0_4 Depth=4
                                        # =>        This Inner Loop Header: Depth=5
	movl	10852(%rsp), %eax       # 4-byte Reload
	movq	10856(%rsp), %rcx       # 8-byte Reload
	movabsq	$1, %rdx
	leaq	.L.str449, %r8
	movabsq	$0, %rsi
	leaq	.L.str450, %rdi
	movabsq	$2, %r9
	leaq	.L.str447, %r10
	leaq	.L.str448, %r11
	movabsq	$3, %rbx
	leaq	.L.str445, %r14
	leaq	.L.str446, %r15
	movabsq	$27, %r12
	leaq	.L.str442, %r13
	leaq	.L.str443, %rbp
	movq	%rcx, 10840(%rsp)       # 8-byte Spill
	leaq	.L.str444, %rcx
	movl	%eax, 10836(%rsp)       # 4-byte Spill
	movl	$1, %eax
	movq	%rcx, 10824(%rsp)       # 8-byte Spill
	movabsq	$19134, %rcx            # imm = 0x4ABE
	movq	%rcx, 10816(%rsp)       # 8-byte Spill
	leaq	.L.str440, %rcx
	movq	%rcx, 10808(%rsp)       # 8-byte Spill
	leaq	.L.str441, %rcx
	movq	%rcx, 10800(%rsp)       # 8-byte Spill
	movabsq	$64, %rcx
	movq	%rcx, 10792(%rsp)       # 8-byte Spill
	leaq	.L.str438, %rcx
	movq	%rcx, 10784(%rsp)       # 8-byte Spill
	leaq	.L.str439, %rcx
	movq	%rcx, 10776(%rsp)       # 8-byte Spill
	leaq	.L.str436, %rcx
	movq	%rcx, 10768(%rsp)       # 8-byte Spill
	leaq	.L.str437, %rcx
	movq	%rcx, 10760(%rsp)       # 8-byte Spill
	leaq	.L.str433, %rcx
	movq	%rcx, 10752(%rsp)       # 8-byte Spill
	leaq	.L.str434, %rcx
	movq	%rcx, 10744(%rsp)       # 8-byte Spill
	leaq	.L.str435, %rcx
	movq	%rcx, 10736(%rsp)       # 8-byte Spill
	movabsq	$46, %rcx
	movq	%rcx, 10728(%rsp)       # 8-byte Spill
	leaq	.L.str431, %rcx
	movq	%rcx, 10720(%rsp)       # 8-byte Spill
	leaq	.L.str432, %rcx
	movq	%rcx, 10712(%rsp)       # 8-byte Spill
	leaq	.L.str429, %rcx
	movq	%rcx, 10704(%rsp)       # 8-byte Spill
	leaq	.L.str430, %rcx
	movq	%rcx, 10696(%rsp)       # 8-byte Spill
	leaq	.L.str427, %rcx
	movq	%rcx, 10688(%rsp)       # 8-byte Spill
	leaq	.L.str428, %rcx
	movq	%rcx, 10680(%rsp)       # 8-byte Spill
	leaq	.L.str424, %rcx
	movq	%rcx, 10672(%rsp)       # 8-byte Spill
	leaq	.L.str425, %rcx
	movq	%rcx, 10664(%rsp)       # 8-byte Spill
	leaq	.L.str426, %rcx
	movq	%rcx, 10656(%rsp)       # 8-byte Spill
	movabsq	$8, %rcx
	movq	%rcx, 10648(%rsp)       # 8-byte Spill
	movabsq	$32, %rcx
	movq	%rcx, 10640(%rsp)       # 8-byte Spill
	leaq	.L.str422, %rcx
	movq	%rcx, 10632(%rsp)       # 8-byte Spill
	leaq	.L.str423, %rcx
	movq	%rcx, 10624(%rsp)       # 8-byte Spill
	leaq	.L.str420, %rcx
	movq	%rcx, 10616(%rsp)       # 8-byte Spill
	leaq	.L.str421, %rcx
	movq	%rcx, 10608(%rsp)       # 8-byte Spill
	leaq	.L.str418, %rcx
	movq	%rcx, 10600(%rsp)       # 8-byte Spill
	leaq	.L.str419, %rcx
	movq	%rcx, 10592(%rsp)       # 8-byte Spill
	movabsq	$29, %rcx
	movq	%rcx, 10584(%rsp)       # 8-byte Spill
	leaq	.L.str415, %rcx
	movq	%rcx, 10576(%rsp)       # 8-byte Spill
	leaq	.L.str416, %rcx
	movq	%rcx, 10568(%rsp)       # 8-byte Spill
	leaq	.L.str417, %rcx
	movq	%rcx, 10560(%rsp)       # 8-byte Spill
	leaq	.L.str413, %rcx
	movq	%rcx, 10552(%rsp)       # 8-byte Spill
	leaq	.L.str414, %rcx
	movq	%rcx, 10544(%rsp)       # 8-byte Spill
	leaq	.L.str411, %rcx
	movq	%rcx, 10536(%rsp)       # 8-byte Spill
	leaq	.L.str412, %rcx
	movq	%rcx, 10528(%rsp)       # 8-byte Spill
	leaq	.L.str409, %rcx
	movq	%rcx, 10520(%rsp)       # 8-byte Spill
	leaq	.L.str410, %rcx
	movq	%rcx, 10512(%rsp)       # 8-byte Spill
	movabsq	$28, %rcx
	movq	%rcx, 10504(%rsp)       # 8-byte Spill
	leaq	.L.str406, %rcx
	movq	%rcx, 10496(%rsp)       # 8-byte Spill
	leaq	.L.str407, %rcx
	movq	%rcx, 10488(%rsp)       # 8-byte Spill
	leaq	.L.str408, %rcx
	movq	%rcx, 10480(%rsp)       # 8-byte Spill
	movabsq	$12, %rcx
	movq	%rcx, 10472(%rsp)       # 8-byte Spill
	leaq	.L.str404, %rcx
	movq	%rcx, 10464(%rsp)       # 8-byte Spill
	leaq	.L.str405, %rcx
	movq	%rcx, 10456(%rsp)       # 8-byte Spill
	leaq	.L.str402, %rcx
	movq	%rcx, 10448(%rsp)       # 8-byte Spill
	leaq	.L.str403, %rcx
	movq	%rcx, 10440(%rsp)       # 8-byte Spill
	leaq	.L.str399, %rcx
	movq	%rcx, 10432(%rsp)       # 8-byte Spill
	leaq	.L.str400, %rcx
	movq	%rcx, 10424(%rsp)       # 8-byte Spill
	leaq	.L.str401, %rcx
	movq	%rcx, 10416(%rsp)       # 8-byte Spill
	leaq	.L.str397, %rcx
	movq	%rcx, 10408(%rsp)       # 8-byte Spill
	leaq	.L.str398, %rcx
	movq	%rcx, 10400(%rsp)       # 8-byte Spill
	leaq	orig, %rcx
	movq	%rcx, 10392(%rsp)       # 8-byte Spill
	leaq	.L.str395, %rcx
	movq	%rcx, 10384(%rsp)       # 8-byte Spill
	leaq	.L.str396, %rcx
	movq	%rcx, 10376(%rsp)       # 8-byte Spill
	leaq	.L.str393, %rcx
	movq	%rcx, 10368(%rsp)       # 8-byte Spill
	leaq	.L.str394, %rcx
	movq	%rcx, 10360(%rsp)       # 8-byte Spill
	leaq	.L.str391, %rcx
	movq	%rcx, 10352(%rsp)       # 8-byte Spill
	leaq	.L.str392, %rcx
	movq	%rcx, 10344(%rsp)       # 8-byte Spill
	leaq	.L.str388, %rcx
	movq	%rcx, 10336(%rsp)       # 8-byte Spill
	leaq	.L.str389, %rcx
	movq	%rcx, 10328(%rsp)       # 8-byte Spill
	leaq	.L.str390, %rcx
	movq	%rcx, 10320(%rsp)       # 8-byte Spill
	leaq	.L.str386, %rcx
	movq	%rcx, 10312(%rsp)       # 8-byte Spill
	leaq	.L.str387, %rcx
	movq	%rcx, 10304(%rsp)       # 8-byte Spill
	leaq	.L.str384, %rcx
	movq	%rcx, 10296(%rsp)       # 8-byte Spill
	leaq	.L.str385, %rcx
	movq	%rcx, 10288(%rsp)       # 8-byte Spill
	leaq	.L.str382, %rcx
	movq	%rcx, 10280(%rsp)       # 8-byte Spill
	leaq	.L.str383, %rcx
	movq	%rcx, 10272(%rsp)       # 8-byte Spill
	leaq	.L.str379, %rcx
	movq	%rcx, 10264(%rsp)       # 8-byte Spill
	leaq	.L.str380, %rcx
	movq	%rcx, 10256(%rsp)       # 8-byte Spill
	leaq	.L.str381, %rcx
	movq	%rcx, 10248(%rsp)       # 8-byte Spill
	leaq	.L.str377, %rcx
	movq	%rcx, 10240(%rsp)       # 8-byte Spill
	leaq	.L.str378, %rcx
	movq	%rcx, 10232(%rsp)       # 8-byte Spill
	leaq	.L.str375, %rcx
	movq	%rcx, 10224(%rsp)       # 8-byte Spill
	leaq	.L.str376, %rcx
	movq	%rcx, 10216(%rsp)       # 8-byte Spill
	leaq	.L.str372, %rcx
	movq	%rcx, 10208(%rsp)       # 8-byte Spill
	leaq	.L.str373, %rcx
	movq	%rcx, 10200(%rsp)       # 8-byte Spill
	leaq	.L.str374, %rcx
	movq	%rcx, 10192(%rsp)       # 8-byte Spill
	leaq	.L.str370, %rcx
	movq	%rcx, 10184(%rsp)       # 8-byte Spill
	leaq	.L.str371, %rcx
	movq	%rcx, 10176(%rsp)       # 8-byte Spill
	leaq	filter, %rcx
	movq	%rcx, 10168(%rsp)       # 8-byte Spill
	leaq	.L.str368, %rcx
	movq	%rcx, 10160(%rsp)       # 8-byte Spill
	leaq	.L.str369, %rcx
	movq	%rcx, 10152(%rsp)       # 8-byte Spill
	leaq	.L.str366, %rcx
	movq	%rcx, 10144(%rsp)       # 8-byte Spill
	leaq	.L.str367, %rcx
	movq	%rcx, 10136(%rsp)       # 8-byte Spill
	leaq	.L.str364, %rcx
	movq	%rcx, 10128(%rsp)       # 8-byte Spill
	leaq	.L.str365, %rcx
	movq	%rcx, 10120(%rsp)       # 8-byte Spill
	leaq	.L.str361, %rcx
	movq	%rcx, 10112(%rsp)       # 8-byte Spill
	leaq	.L.str362, %rcx
	movq	%rcx, 10104(%rsp)       # 8-byte Spill
	leaq	.L.str363, %rcx
	movq	%rcx, 10096(%rsp)       # 8-byte Spill
	leaq	.L.str359, %rcx
	movq	%rcx, 10088(%rsp)       # 8-byte Spill
	leaq	.L.str360, %rcx
	movq	%rcx, 10080(%rsp)       # 8-byte Spill
	leaq	.L.str357, %rcx
	movq	%rcx, 10072(%rsp)       # 8-byte Spill
	leaq	.L.str358, %rcx
	movq	%rcx, 10064(%rsp)       # 8-byte Spill
	leaq	.L.str355, %rcx
	movq	%rcx, 10056(%rsp)       # 8-byte Spill
	leaq	.L.str356, %rcx
	movq	%rcx, 10048(%rsp)       # 8-byte Spill
	leaq	.L.str352, %rcx
	movq	%rcx, 10040(%rsp)       # 8-byte Spill
	leaq	.L.str353, %rcx
	movq	%rcx, 10032(%rsp)       # 8-byte Spill
	leaq	.L.str354, %rcx
	movq	%rcx, 10024(%rsp)       # 8-byte Spill
	leaq	.L.str350, %rcx
	movq	%rcx, 10016(%rsp)       # 8-byte Spill
	leaq	.L.str351, %rcx
	movq	%rcx, 10008(%rsp)       # 8-byte Spill
	leaq	.L.str348, %rcx
	movq	%rcx, 10000(%rsp)       # 8-byte Spill
	leaq	.L.str349, %rcx
	movq	%rcx, 9992(%rsp)        # 8-byte Spill
	leaq	.L.str346, %rcx
	movq	%rcx, 9984(%rsp)        # 8-byte Spill
	leaq	.L.str347, %rcx
	movq	%rcx, 9976(%rsp)        # 8-byte Spill
	movabsq	$-1, %rcx
	movq	%rcx, 9968(%rsp)        # 8-byte Spill
	leaq	.L.str343, %rcx
	movq	%rcx, 9960(%rsp)        # 8-byte Spill
	leaq	.L.str344, %rcx
	movq	%rcx, 9952(%rsp)        # 8-byte Spill
	leaq	.L.str345, %rcx
	movq	%rcx, 9944(%rsp)        # 8-byte Spill
	movabsq	$48, %rcx
	movq	%rcx, 9936(%rsp)        # 8-byte Spill
	leaq	.L.str341, %rcx
	movq	%rcx, 9928(%rsp)        # 8-byte Spill
	leaq	.L.str342, %rcx
	movq	%rcx, 9920(%rsp)        # 8-byte Spill
	leaq	.L.str339, %rcx
	movq	%rcx, 9912(%rsp)        # 8-byte Spill
	leaq	.L.str340, %rcx
	movq	%rcx, 9904(%rsp)        # 8-byte Spill
	leaq	.L.str337, %rcx
	movq	%rcx, 9896(%rsp)        # 8-byte Spill
	leaq	.L.str338, %rcx
	movq	%rcx, 9888(%rsp)        # 8-byte Spill
	leaq	.L.str334, %rcx
	movq	%rcx, 9880(%rsp)        # 8-byte Spill
	leaq	.L.str335, %rcx
	movq	%rcx, 9872(%rsp)        # 8-byte Spill
	leaq	.L.str336, %rcx
	.loc	1 28 0                  # stencil.c:28:0
.Ltmp35:
	movq	%rcx, 9864(%rsp)        # 8-byte Spill
	movq	9968(%rsp), %rcx        # 8-byte Reload
	movq	%rdi, 9856(%rsp)        # 8-byte Spill
	movq	%rcx, %rdi
	movq	9880(%rsp), %rcx        # 8-byte Reload
	movq	%rsi, 9848(%rsp)        # 8-byte Spill
	movq	%rcx, %rsi
	movq	9872(%rsp), %rcx        # 8-byte Reload
	movq	%rdx, 9840(%rsp)        # 8-byte Spill
	movq	%rcx, %rdx
	movq	9864(%rsp), %rcx        # 8-byte Reload
	movq	%r8, 9832(%rsp)         # 8-byte Spill
	movq	9936(%rsp), %r8         # 8-byte Reload
	movq	%r9, 9824(%rsp)         # 8-byte Spill
	movl	%eax, %r9d
	movl	$1, (%rsp)
	movl	%eax, 9820(%rsp)        # 4-byte Spill
	movq	%r15, 9808(%rsp)        # 8-byte Spill
	movq	%r12, 9800(%rsp)        # 8-byte Spill
	movq	%r14, 9792(%rsp)        # 8-byte Spill
	movq	%r13, 9784(%rsp)        # 8-byte Spill
	movq	%rbp, 9776(%rsp)        # 8-byte Spill
	movq	%rbx, 9768(%rsp)        # 8-byte Spill
	movq	%r10, 9760(%rsp)        # 8-byte Spill
	movq	%r11, 9752(%rsp)        # 8-byte Spill
	callq	trace_logger_log0
	movq	9824(%rsp), %rdi        # 8-byte Reload
	movq	10792(%rsp), %rsi       # 8-byte Reload
	movq	9848(%rsp), %rdx        # 8-byte Reload
	movq	9840(%rsp), %rcx        # 8-byte Reload
	movq	9896(%rsp), %r8         # 8-byte Reload
	movq	9840(%rsp), %r9         # 8-byte Reload
	movq	9888(%rsp), %r10        # 8-byte Reload
	movq	%r10, (%rsp)
	callq	trace_logger_log_int
	movq	9840(%rsp), %rdi        # 8-byte Reload
	movq	10792(%rsp), %rsi       # 8-byte Reload
	movq	9848(%rsp), %rdx        # 8-byte Reload
	movq	9848(%rsp), %rcx        # 8-byte Reload
	movq	9912(%rsp), %r8         # 8-byte Reload
	movq	9840(%rsp), %r9         # 8-byte Reload
	movq	9904(%rsp), %r10        # 8-byte Reload
	movq	%r10, (%rsp)
	callq	trace_logger_log_int
	movq	10816(%rsp), %rdi       # 8-byte Reload
	movq	10792(%rsp), %rsi       # 8-byte Reload
	movq	10840(%rsp), %rdx       # 8-byte Reload
	movq	9840(%rsp), %rcx        # 8-byte Reload
	movq	9928(%rsp), %r8         # 8-byte Reload
	movq	9848(%rsp), %r9         # 8-byte Reload
	movq	9920(%rsp), %r10        # 8-byte Reload
	movq	%r10, (%rsp)
	callq	trace_logger_log_int
	movq	9968(%rsp), %rdi        # 8-byte Reload
	movq	9960(%rsp), %rsi        # 8-byte Reload
	movq	9952(%rsp), %rdx        # 8-byte Reload
	movq	9944(%rsp), %rcx        # 8-byte Reload
	movq	9936(%rsp), %r8         # 8-byte Reload
	movl	9820(%rsp), %r9d        # 4-byte Reload
	movl	$1, (%rsp)
	callq	trace_logger_log0
	movq	9824(%rsp), %rdi        # 8-byte Reload
	movq	10640(%rsp), %rsi       # 8-byte Reload
	movq	9848(%rsp), %rdx        # 8-byte Reload
	movq	9840(%rsp), %rcx        # 8-byte Reload
	movq	9984(%rsp), %r8         # 8-byte Reload
	movq	9840(%rsp), %r9         # 8-byte Reload
	movq	9976(%rsp), %r10        # 8-byte Reload
	movq	%r10, (%rsp)
	callq	trace_logger_log_int
	movq	9840(%rsp), %rdi        # 8-byte Reload
	movq	10640(%rsp), %rsi       # 8-byte Reload
	movq	9848(%rsp), %rdx        # 8-byte Reload
	movq	9840(%rsp), %rcx        # 8-byte Reload
	movq	10000(%rsp), %r8        # 8-byte Reload
	movq	9840(%rsp), %r9         # 8-byte Reload
	movq	9992(%rsp), %r10        # 8-byte Reload
	movq	%r10, (%rsp)
	callq	trace_logger_log_int
	movl	10836(%rsp), %eax       # 4-byte Reload
	movl	%eax, %eax
	movl	%eax, %edx
	movq	10816(%rsp), %rdi       # 8-byte Reload
	movq	10640(%rsp), %rsi       # 8-byte Reload
	movq	9840(%rsp), %rcx        # 8-byte Reload
	movq	10016(%rsp), %r8        # 8-byte Reload
	movq	9848(%rsp), %r9         # 8-byte Reload
	movq	10008(%rsp), %r10       # 8-byte Reload
	movq	%r10, (%rsp)
	callq	trace_logger_log_int
	movq	10504(%rsp), %rdi       # 8-byte Reload
	movq	10040(%rsp), %rsi       # 8-byte Reload
	movq	10032(%rsp), %rdx       # 8-byte Reload
	movq	10024(%rsp), %rcx       # 8-byte Reload
	movq	10648(%rsp), %r8        # 8-byte Reload
	movl	9820(%rsp), %r9d        # 4-byte Reload
	movl	$1, (%rsp)
	callq	trace_logger_log0
	movq	9824(%rsp), %rdi        # 8-byte Reload
	movq	10792(%rsp), %rsi       # 8-byte Reload
	movq	10888(%rsp), %rdx       # 8-byte Reload
	movq	9840(%rsp), %rcx        # 8-byte Reload
	movq	10056(%rsp), %r8        # 8-byte Reload
	movq	9848(%rsp), %r9         # 8-byte Reload
	movq	10048(%rsp), %r10       # 8-byte Reload
	movq	%r10, (%rsp)
	callq	trace_logger_log_int
	movq	9840(%rsp), %rdi        # 8-byte Reload
	movq	10792(%rsp), %rsi       # 8-byte Reload
	movq	10840(%rsp), %rdx       # 8-byte Reload
	movq	9840(%rsp), %rcx        # 8-byte Reload
	movq	10072(%rsp), %r8        # 8-byte Reload
	movq	9848(%rsp), %r9         # 8-byte Reload
	movq	10064(%rsp), %r10       # 8-byte Reload
	movq	%r10, (%rsp)
	callq	trace_logger_log_int
	movq	10840(%rsp), %rcx       # 8-byte Reload
	movq	10888(%rsp), %rdx       # 8-byte Reload
	addq	%rdx, %rcx
	movq	10816(%rsp), %rdi       # 8-byte Reload
	movq	10792(%rsp), %rsi       # 8-byte Reload
	movq	%rcx, %rdx
	movq	9840(%rsp), %r8         # 8-byte Reload
	movq	%rcx, 9744(%rsp)        # 8-byte Spill
	movq	%r8, %rcx
	movq	10088(%rsp), %r8        # 8-byte Reload
	movq	9848(%rsp), %r9         # 8-byte Reload
	movq	10080(%rsp), %r10       # 8-byte Reload
	movq	%r10, (%rsp)
	callq	trace_logger_log_int
	movq	10504(%rsp), %rdi       # 8-byte Reload
	movq	10112(%rsp), %rsi       # 8-byte Reload
	movq	10104(%rsp), %rdx       # 8-byte Reload
	movq	10096(%rsp), %rcx       # 8-byte Reload
	movq	10584(%rsp), %r8        # 8-byte Reload
	movl	9820(%rsp), %r9d        # 4-byte Reload
	movl	$1, (%rsp)
	callq	trace_logger_log0
	movq	9768(%rsp), %rdi        # 8-byte Reload
	movq	10792(%rsp), %rsi       # 8-byte Reload
	movq	9744(%rsp), %rdx        # 8-byte Reload
	movq	9840(%rsp), %rcx        # 8-byte Reload
	movq	10128(%rsp), %r8        # 8-byte Reload
	movq	9848(%rsp), %r9         # 8-byte Reload
	movq	10120(%rsp), %r10       # 8-byte Reload
	movq	%r10, (%rsp)
	callq	trace_logger_log_int
	movq	9824(%rsp), %rdi        # 8-byte Reload
	movq	10792(%rsp), %rsi       # 8-byte Reload
	movq	9848(%rsp), %rdx        # 8-byte Reload
	movq	9848(%rsp), %rcx        # 8-byte Reload
	movq	10144(%rsp), %r8        # 8-byte Reload
	movq	9848(%rsp), %r9         # 8-byte Reload
	movq	10136(%rsp), %r10       # 8-byte Reload
	movq	%r10, (%rsp)
	callq	trace_logger_log_int
	movq	9840(%rsp), %rdi        # 8-byte Reload
	movq	10792(%rsp), %rsi       # 8-byte Reload
	movq	10168(%rsp), %rdx       # 8-byte Reload
	movq	9840(%rsp), %rcx        # 8-byte Reload
	movq	10160(%rsp), %r8        # 8-byte Reload
	movq	9848(%rsp), %r9         # 8-byte Reload
	movq	10152(%rsp), %r10       # 8-byte Reload
	movq	%r10, (%rsp)
	callq	trace_logger_log_int
	movq	9744(%rsp), %rcx        # 8-byte Reload
	shlq	$2, %rcx
	movq	10168(%rsp), %rdx       # 8-byte Reload
	addq	%rcx, %rdx
	movq	10816(%rsp), %rdi       # 8-byte Reload
	movq	10792(%rsp), %rsi       # 8-byte Reload
	movq	%rdx, 9736(%rsp)        # 8-byte Spill
	movq	9840(%rsp), %rcx        # 8-byte Reload
	movq	10184(%rsp), %r8        # 8-byte Reload
	movq	9848(%rsp), %r9         # 8-byte Reload
	movq	10176(%rsp), %r10       # 8-byte Reload
	movq	%r10, (%rsp)
	callq	trace_logger_log_int
	movq	10504(%rsp), %rdi       # 8-byte Reload
	movq	10208(%rsp), %rsi       # 8-byte Reload
	movq	10200(%rsp), %rdx       # 8-byte Reload
	movq	10192(%rsp), %rcx       # 8-byte Reload
	movq	9800(%rsp), %r8         # 8-byte Reload
	movl	9820(%rsp), %r9d        # 4-byte Reload
	movl	$1, (%rsp)
	callq	trace_logger_log0
	movq	9840(%rsp), %rdi        # 8-byte Reload
	movq	10792(%rsp), %rsi       # 8-byte Reload
	movq	9736(%rsp), %rdx        # 8-byte Reload
	movq	9840(%rsp), %rcx        # 8-byte Reload
	movq	10224(%rsp), %r8        # 8-byte Reload
	movq	9848(%rsp), %r9         # 8-byte Reload
	movq	10216(%rsp), %r10       # 8-byte Reload
	movq	%r10, (%rsp)
	callq	trace_logger_log_int
	movq	9744(%rsp), %rcx        # 8-byte Reload
	movl	filter(,%rcx,4), %eax
	movl	%eax, %esi
	movl	%esi, %edx
	movq	10816(%rsp), %rdi       # 8-byte Reload
	movq	10640(%rsp), %rsi       # 8-byte Reload
	movq	9840(%rsp), %rcx        # 8-byte Reload
	movq	10240(%rsp), %r8        # 8-byte Reload
	movq	9848(%rsp), %r9         # 8-byte Reload
	movq	10232(%rsp), %r10       # 8-byte Reload
	movq	%r10, (%rsp)
	movl	%eax, 9732(%rsp)        # 4-byte Spill
	callq	trace_logger_log_int
	movq	10504(%rsp), %rdi       # 8-byte Reload
	movq	10264(%rsp), %rsi       # 8-byte Reload
	movq	10256(%rsp), %rdx       # 8-byte Reload
	movq	10248(%rsp), %rcx       # 8-byte Reload
	movq	10648(%rsp), %r8        # 8-byte Reload
	movl	9820(%rsp), %r9d        # 4-byte Reload
	movl	$1, (%rsp)
	callq	trace_logger_log0
	movq	9824(%rsp), %rdi        # 8-byte Reload
	movq	10792(%rsp), %rsi       # 8-byte Reload
	movq	10840(%rsp), %rdx       # 8-byte Reload
	movq	9840(%rsp), %rcx        # 8-byte Reload
	movq	10280(%rsp), %r8        # 8-byte Reload
	movq	9848(%rsp), %r9         # 8-byte Reload
	movq	10272(%rsp), %r10       # 8-byte Reload
	movq	%r10, (%rsp)
	callq	trace_logger_log_int
	movq	9840(%rsp), %rdi        # 8-byte Reload
	movq	10792(%rsp), %rsi       # 8-byte Reload
	movq	10864(%rsp), %rdx       # 8-byte Reload
	movq	9840(%rsp), %rcx        # 8-byte Reload
	movq	10296(%rsp), %r8        # 8-byte Reload
	movq	9848(%rsp), %r9         # 8-byte Reload
	movq	10288(%rsp), %r10       # 8-byte Reload
	movq	%r10, (%rsp)
	callq	trace_logger_log_int
	movq	10864(%rsp), %rcx       # 8-byte Reload
	movq	10840(%rsp), %rdx       # 8-byte Reload
	addq	%rdx, %rcx
	movq	10816(%rsp), %rdi       # 8-byte Reload
	movq	10792(%rsp), %rsi       # 8-byte Reload
	movq	%rcx, %rdx
	movq	9840(%rsp), %r8         # 8-byte Reload
	movq	%rcx, 9720(%rsp)        # 8-byte Spill
	movq	%r8, %rcx
	movq	10312(%rsp), %r8        # 8-byte Reload
	movq	9848(%rsp), %r9         # 8-byte Reload
	movq	10304(%rsp), %r10       # 8-byte Reload
	movq	%r10, (%rsp)
	callq	trace_logger_log_int
	movq	10504(%rsp), %rdi       # 8-byte Reload
	movq	10336(%rsp), %rsi       # 8-byte Reload
	movq	10328(%rsp), %rdx       # 8-byte Reload
	movq	10320(%rsp), %rcx       # 8-byte Reload
	movq	10584(%rsp), %r8        # 8-byte Reload
	movl	9820(%rsp), %r9d        # 4-byte Reload
	movl	$1, (%rsp)
	callq	trace_logger_log0
	movq	9768(%rsp), %rdi        # 8-byte Reload
	movq	10792(%rsp), %rsi       # 8-byte Reload
	movq	9720(%rsp), %rdx        # 8-byte Reload
	movq	9840(%rsp), %rcx        # 8-byte Reload
	movq	10352(%rsp), %r8        # 8-byte Reload
	movq	9848(%rsp), %r9         # 8-byte Reload
	movq	10344(%rsp), %r10       # 8-byte Reload
	movq	%r10, (%rsp)
	callq	trace_logger_log_int
	movq	9824(%rsp), %rdi        # 8-byte Reload
	movq	10792(%rsp), %rsi       # 8-byte Reload
	movq	9848(%rsp), %rdx        # 8-byte Reload
	movq	9848(%rsp), %rcx        # 8-byte Reload
	movq	10368(%rsp), %r8        # 8-byte Reload
	movq	9848(%rsp), %r9         # 8-byte Reload
	movq	10360(%rsp), %r10       # 8-byte Reload
	movq	%r10, (%rsp)
	callq	trace_logger_log_int
	movq	9840(%rsp), %rdi        # 8-byte Reload
	movq	10792(%rsp), %rsi       # 8-byte Reload
	movq	10392(%rsp), %rdx       # 8-byte Reload
	movq	9840(%rsp), %rcx        # 8-byte Reload
	movq	10384(%rsp), %r8        # 8-byte Reload
	movq	9848(%rsp), %r9         # 8-byte Reload
	movq	10376(%rsp), %r10       # 8-byte Reload
	movq	%r10, (%rsp)
	callq	trace_logger_log_int
	movq	9720(%rsp), %rcx        # 8-byte Reload
	shlq	$2, %rcx
	movq	10392(%rsp), %rdx       # 8-byte Reload
	addq	%rcx, %rdx
	movq	10816(%rsp), %rdi       # 8-byte Reload
	movq	10792(%rsp), %rsi       # 8-byte Reload
	movq	%rdx, 9712(%rsp)        # 8-byte Spill
	movq	9840(%rsp), %rcx        # 8-byte Reload
	movq	10408(%rsp), %r8        # 8-byte Reload
	movq	9848(%rsp), %r9         # 8-byte Reload
	movq	10400(%rsp), %r10       # 8-byte Reload
	movq	%r10, (%rsp)
	callq	trace_logger_log_int
	movq	10504(%rsp), %rdi       # 8-byte Reload
	movq	10432(%rsp), %rsi       # 8-byte Reload
	movq	10424(%rsp), %rdx       # 8-byte Reload
	movq	10416(%rsp), %rcx       # 8-byte Reload
	movq	9800(%rsp), %r8         # 8-byte Reload
	movl	9820(%rsp), %r9d        # 4-byte Reload
	movl	$1, (%rsp)
	callq	trace_logger_log0
	movq	9840(%rsp), %rdi        # 8-byte Reload
	movq	10792(%rsp), %rsi       # 8-byte Reload
	movq	9712(%rsp), %rdx        # 8-byte Reload
	movq	9840(%rsp), %rcx        # 8-byte Reload
	movq	10448(%rsp), %r8        # 8-byte Reload
	movq	9848(%rsp), %r9         # 8-byte Reload
	movq	10440(%rsp), %r10       # 8-byte Reload
	movq	%r10, (%rsp)
	callq	trace_logger_log_int
	movq	9720(%rsp), %rcx        # 8-byte Reload
	movl	orig(,%rcx,4), %eax
	movl	%eax, %esi
	movl	%esi, %edx
	movq	10816(%rsp), %rdi       # 8-byte Reload
	movq	10640(%rsp), %rsi       # 8-byte Reload
	movq	9840(%rsp), %rcx        # 8-byte Reload
	movq	10464(%rsp), %r8        # 8-byte Reload
	movq	9848(%rsp), %r9         # 8-byte Reload
	movq	10456(%rsp), %r10       # 8-byte Reload
	movq	%r10, (%rsp)
	movl	%eax, 9708(%rsp)        # 4-byte Spill
	callq	trace_logger_log_int
	movq	10504(%rsp), %rdi       # 8-byte Reload
	movq	10496(%rsp), %rsi       # 8-byte Reload
	movq	10488(%rsp), %rdx       # 8-byte Reload
	movq	10480(%rsp), %rcx       # 8-byte Reload
	movq	10472(%rsp), %r8        # 8-byte Reload
	movl	9820(%rsp), %r9d        # 4-byte Reload
	movl	$1, (%rsp)
	callq	trace_logger_log0
	movl	9732(%rsp), %eax        # 4-byte Reload
	movl	%eax, %r9d
	movl	%r9d, %edx
	movq	9824(%rsp), %rdi        # 8-byte Reload
	movq	10640(%rsp), %rsi       # 8-byte Reload
	movq	9840(%rsp), %rcx        # 8-byte Reload
	movq	10520(%rsp), %r8        # 8-byte Reload
	movq	9848(%rsp), %r9         # 8-byte Reload
	movq	10512(%rsp), %r10       # 8-byte Reload
	movq	%r10, (%rsp)
	callq	trace_logger_log_int
	movl	9708(%rsp), %eax        # 4-byte Reload
	movl	%eax, %eax
	movl	%eax, %edx
	movq	9840(%rsp), %rdi        # 8-byte Reload
	movq	10640(%rsp), %rsi       # 8-byte Reload
	movq	9840(%rsp), %rcx        # 8-byte Reload
	movq	10536(%rsp), %r8        # 8-byte Reload
	movq	9848(%rsp), %r9         # 8-byte Reload
	movq	10528(%rsp), %r10       # 8-byte Reload
	movq	%r10, (%rsp)
	callq	trace_logger_log_int
	movl	9708(%rsp), %eax        # 4-byte Reload
	movl	9732(%rsp), %esi        # 4-byte Reload
	imull	%esi, %eax
	movl	%eax, %esi
	movl	%esi, %edx
	movq	10816(%rsp), %rdi       # 8-byte Reload
	movq	10640(%rsp), %rsi       # 8-byte Reload
	movq	9840(%rsp), %rcx        # 8-byte Reload
	movq	10552(%rsp), %r8        # 8-byte Reload
	movq	9848(%rsp), %r9         # 8-byte Reload
	movq	10544(%rsp), %r10       # 8-byte Reload
	movq	%r10, (%rsp)
	movl	%eax, 9704(%rsp)        # 4-byte Spill
	callq	trace_logger_log_int
.Ltmp36:
	#DEBUG_VALUE: mul <- [RSP+9704]
	.loc	1 29 0                  # stencil.c:29:0
	movq	10584(%rsp), %rdi       # 8-byte Reload
	movq	10576(%rsp), %rsi       # 8-byte Reload
	movq	10568(%rsp), %rdx       # 8-byte Reload
	movq	10560(%rsp), %rcx       # 8-byte Reload
	movq	10648(%rsp), %r8        # 8-byte Reload
	movl	9820(%rsp), %r9d        # 4-byte Reload
	movl	$1, (%rsp)
	callq	trace_logger_log0
	movl	10836(%rsp), %eax       # 4-byte Reload
	movl	%eax, %r9d
	movl	%r9d, %edx
	movq	9824(%rsp), %rdi        # 8-byte Reload
	movq	10640(%rsp), %rsi       # 8-byte Reload
	movq	9840(%rsp), %rcx        # 8-byte Reload
	movq	10600(%rsp), %r8        # 8-byte Reload
	movq	9848(%rsp), %r9         # 8-byte Reload
	movq	10592(%rsp), %r10       # 8-byte Reload
	movq	%r10, (%rsp)
	callq	trace_logger_log_int
	movl	9704(%rsp), %eax        # 4-byte Reload
	movl	%eax, %eax
	movl	%eax, %edx
	movq	9840(%rsp), %rdi        # 8-byte Reload
	movq	10640(%rsp), %rsi       # 8-byte Reload
	movq	9840(%rsp), %rcx        # 8-byte Reload
	movq	10616(%rsp), %r8        # 8-byte Reload
	movq	9848(%rsp), %r9         # 8-byte Reload
	movq	10608(%rsp), %r10       # 8-byte Reload
	movq	%r10, (%rsp)
	callq	trace_logger_log_int
	movl	9704(%rsp), %eax        # 4-byte Reload
	movl	10836(%rsp), %esi       # 4-byte Reload
	addl	%esi, %eax
	movl	%eax, %esi
	movl	%esi, %edx
	movq	10816(%rsp), %rdi       # 8-byte Reload
	movq	10640(%rsp), %rsi       # 8-byte Reload
	movq	9840(%rsp), %rcx        # 8-byte Reload
	movq	10632(%rsp), %r8        # 8-byte Reload
	movq	9848(%rsp), %r9         # 8-byte Reload
	movq	10624(%rsp), %r10       # 8-byte Reload
	movq	%r10, (%rsp)
	movl	%eax, 9700(%rsp)        # 4-byte Spill
	callq	trace_logger_log_int
.Ltmp37:
	#DEBUG_VALUE: temp <- [RSP+9700]
	.loc	1 27 0                  # stencil.c:27:0
	movq	9800(%rsp), %rdi        # 8-byte Reload
	movq	10672(%rsp), %rsi       # 8-byte Reload
	movq	10664(%rsp), %rdx       # 8-byte Reload
	movq	10656(%rsp), %rcx       # 8-byte Reload
	movq	10648(%rsp), %r8        # 8-byte Reload
	movl	9820(%rsp), %r9d        # 4-byte Reload
	movl	$1, (%rsp)
	callq	trace_logger_log0
	movq	9824(%rsp), %rdi        # 8-byte Reload
	movq	10792(%rsp), %rsi       # 8-byte Reload
	movq	9840(%rsp), %rdx        # 8-byte Reload
	movq	9848(%rsp), %rcx        # 8-byte Reload
	movq	10688(%rsp), %r8        # 8-byte Reload
	movq	9848(%rsp), %r9         # 8-byte Reload
	movq	10680(%rsp), %r10       # 8-byte Reload
	movq	%r10, (%rsp)
	callq	trace_logger_log_int
	movq	9840(%rsp), %rdi        # 8-byte Reload
	movq	10792(%rsp), %rsi       # 8-byte Reload
	movq	10840(%rsp), %rdx       # 8-byte Reload
	movq	9840(%rsp), %rcx        # 8-byte Reload
	movq	10704(%rsp), %r8        # 8-byte Reload
	movq	9848(%rsp), %r9         # 8-byte Reload
	movq	10696(%rsp), %r10       # 8-byte Reload
	movq	%r10, (%rsp)
	callq	trace_logger_log_int
	movq	10840(%rsp), %rcx       # 8-byte Reload
	addq	$1, %rcx
	movq	10816(%rsp), %rdi       # 8-byte Reload
	movq	10792(%rsp), %rsi       # 8-byte Reload
	movq	%rcx, %rdx
	movq	9840(%rsp), %r8         # 8-byte Reload
	movq	%rcx, 9688(%rsp)        # 8-byte Spill
	movq	%r8, %rcx
	movq	10720(%rsp), %r8        # 8-byte Reload
	movq	9848(%rsp), %r9         # 8-byte Reload
	movq	10712(%rsp), %r10       # 8-byte Reload
	movq	%r10, (%rsp)
	callq	trace_logger_log_int
	movq	9800(%rsp), %rdi        # 8-byte Reload
	movq	10752(%rsp), %rsi       # 8-byte Reload
	movq	10744(%rsp), %rdx       # 8-byte Reload
	movq	10736(%rsp), %rcx       # 8-byte Reload
	movq	10728(%rsp), %r8        # 8-byte Reload
	movl	9820(%rsp), %r9d        # 4-byte Reload
	movl	$1, (%rsp)
	callq	trace_logger_log0
	movq	9824(%rsp), %rdi        # 8-byte Reload
	movq	10792(%rsp), %rsi       # 8-byte Reload
	movq	9768(%rsp), %rdx        # 8-byte Reload
	movq	9848(%rsp), %rcx        # 8-byte Reload
	movq	10768(%rsp), %r8        # 8-byte Reload
	movq	9848(%rsp), %r9         # 8-byte Reload
	movq	10760(%rsp), %r10       # 8-byte Reload
	movq	%r10, (%rsp)
	callq	trace_logger_log_int
	movq	9840(%rsp), %rdi        # 8-byte Reload
	movq	10792(%rsp), %rsi       # 8-byte Reload
	movq	9688(%rsp), %rdx        # 8-byte Reload
	movq	9840(%rsp), %rcx        # 8-byte Reload
	movq	10784(%rsp), %r8        # 8-byte Reload
	movq	9848(%rsp), %r9         # 8-byte Reload
	movq	10776(%rsp), %r10       # 8-byte Reload
	movq	%r10, (%rsp)
	callq	trace_logger_log_int
	movq	9688(%rsp), %rcx        # 8-byte Reload
	cmpq	$3, %rcx
	sete	%al
	movb	%al, %cl
	andb	$1, %cl
	movzbl	%cl, %ecx
	movl	%ecx, %edx
	movq	10816(%rsp), %rdi       # 8-byte Reload
	movq	9840(%rsp), %rsi        # 8-byte Reload
	movq	9840(%rsp), %rcx        # 8-byte Reload
	movq	10808(%rsp), %r8        # 8-byte Reload
	movq	9848(%rsp), %r9         # 8-byte Reload
	movq	10800(%rsp), %r10       # 8-byte Reload
	movq	%r10, (%rsp)
	movb	%al, 9687(%rsp)         # 1-byte Spill
	callq	trace_logger_log_int
	movq	9800(%rsp), %rdi        # 8-byte Reload
	movq	9784(%rsp), %rsi        # 8-byte Reload
	movq	9776(%rsp), %rdx        # 8-byte Reload
	movq	10824(%rsp), %rcx       # 8-byte Reload
	movq	9824(%rsp), %r8         # 8-byte Reload
	movl	9820(%rsp), %r9d        # 4-byte Reload
	movl	$1, (%rsp)
	callq	trace_logger_log0
	movq	9768(%rsp), %rdi        # 8-byte Reload
	movq	9848(%rsp), %rsi        # 8-byte Reload
	movq	9848(%rsp), %rdx        # 8-byte Reload
	movq	9840(%rsp), %rcx        # 8-byte Reload
	movq	9792(%rsp), %r8         # 8-byte Reload
	movq	9848(%rsp), %r9         # 8-byte Reload
	movq	9808(%rsp), %r10        # 8-byte Reload
	movq	%r10, (%rsp)
	callq	trace_logger_log_int
	movq	9824(%rsp), %rdi        # 8-byte Reload
	movq	9848(%rsp), %rsi        # 8-byte Reload
	movq	9848(%rsp), %rdx        # 8-byte Reload
	movq	9840(%rsp), %rcx        # 8-byte Reload
	movq	9760(%rsp), %r8         # 8-byte Reload
	movq	9848(%rsp), %r9         # 8-byte Reload
	movq	9752(%rsp), %r10        # 8-byte Reload
	movq	%r10, (%rsp)
	callq	trace_logger_log_int
	movb	9687(%rsp), %al         # 1-byte Reload
	andb	$1, %al
	movzbl	%al, %eax
	movl	%eax, %edx
	movq	9840(%rsp), %rdi        # 8-byte Reload
	movq	9840(%rsp), %rsi        # 8-byte Reload
	movq	9840(%rsp), %rcx        # 8-byte Reload
	movq	9832(%rsp), %r8         # 8-byte Reload
	movq	9848(%rsp), %r9         # 8-byte Reload
	movq	9856(%rsp), %r10        # 8-byte Reload
	movq	%r10, (%rsp)
	callq	trace_logger_log_int
	movb	9687(%rsp), %al         # 1-byte Reload
	testb	$1, %al
	movq	9688(%rsp), %rcx        # 8-byte Reload
	movl	9700(%rsp), %eax        # 4-byte Reload
	movl	%eax, 10852(%rsp)       # 4-byte Spill
	movq	%rcx, 10856(%rsp)       # 8-byte Spill
	jne	.LBB0_6
	jmp	.LBB0_5
.Ltmp38:
.LBB0_6:                                #   in Loop: Header=BB0_4 Depth=4
	movabsq	$1, %rax
	leaq	.L.str476, %r8
	movabsq	$0, %rcx
	leaq	.L.str477, %rdx
	movabsq	$2, %rsi
	leaq	.L.str474, %rdi
	leaq	.L.str475, %r9
	movabsq	$3, %r10
	leaq	.L.str472, %r11
	leaq	.L.str473, %rbx
	movabsq	$26, %r14
	leaq	.L.str469, %r15
	leaq	.L.str470, %r12
	leaq	.L.str471, %r13
	movl	$1, %ebp
	movq	%rax, 9672(%rsp)        # 8-byte Spill
	movabsq	$19134, %rax            # imm = 0x4ABE
	movq	%rax, 9664(%rsp)        # 8-byte Spill
	leaq	.L.str467, %rax
	movq	%rax, 9656(%rsp)        # 8-byte Spill
	leaq	.L.str468, %rax
	movq	%rax, 9648(%rsp)        # 8-byte Spill
	movabsq	$64, %rax
	movq	%rax, 9640(%rsp)        # 8-byte Spill
	leaq	.L.str465, %rax
	movq	%rax, 9632(%rsp)        # 8-byte Spill
	leaq	.L.str466, %rax
	movq	%rax, 9624(%rsp)        # 8-byte Spill
	leaq	.L.str463, %rax
	movq	%rax, 9616(%rsp)        # 8-byte Spill
	leaq	.L.str464, %rax
	movq	%rax, 9608(%rsp)        # 8-byte Spill
	leaq	.L.str460, %rax
	movq	%rax, 9600(%rsp)        # 8-byte Spill
	leaq	.L.str461, %rax
	movq	%rax, 9592(%rsp)        # 8-byte Spill
	leaq	.L.str462, %rax
	movq	%rax, 9584(%rsp)        # 8-byte Spill
	movabsq	$46, %rax
	movq	%rax, 9576(%rsp)        # 8-byte Spill
	leaq	.L.str458, %rax
	movq	%rax, 9568(%rsp)        # 8-byte Spill
	leaq	.L.str459, %rax
	movq	%rax, 9560(%rsp)        # 8-byte Spill
	leaq	.L.str456, %rax
	movq	%rax, 9552(%rsp)        # 8-byte Spill
	leaq	.L.str457, %rax
	movq	%rax, 9544(%rsp)        # 8-byte Spill
	leaq	.L.str454, %rax
	movq	%rax, 9536(%rsp)        # 8-byte Spill
	leaq	.L.str455, %rax
	movq	%rax, 9528(%rsp)        # 8-byte Spill
	leaq	.L.str451, %rax
	movq	%rax, 9520(%rsp)        # 8-byte Spill
	leaq	.L.str452, %rax
	movq	%rax, 9512(%rsp)        # 8-byte Spill
	leaq	.L.str453, %rax
	movq	%rax, 9504(%rsp)        # 8-byte Spill
	movabsq	$8, %rax
	.loc	1 26 0                  # stencil.c:26:0
	movq	%rdi, 9496(%rsp)        # 8-byte Spill
	movq	%r14, %rdi
	movq	%rax, 9488(%rsp)        # 8-byte Spill
	movq	9520(%rsp), %rax        # 8-byte Reload
	movq	%rsi, 9480(%rsp)        # 8-byte Spill
	movq	%rax, %rsi
	movq	9512(%rsp), %rax        # 8-byte Reload
	movq	%rdx, 9472(%rsp)        # 8-byte Spill
	movq	%rax, %rdx
	movq	9504(%rsp), %rax        # 8-byte Reload
	movq	%rcx, 9464(%rsp)        # 8-byte Spill
	movq	%rax, %rcx
	movq	9488(%rsp), %rax        # 8-byte Reload
	movq	%r8, 9456(%rsp)         # 8-byte Spill
	movq	%rax, %r8
	movq	%r9, 9448(%rsp)         # 8-byte Spill
	movl	%ebp, %r9d
	movl	$1, (%rsp)
	movq	%r14, 9440(%rsp)        # 8-byte Spill
	movq	%r15, 9432(%rsp)        # 8-byte Spill
	movq	%r12, 9424(%rsp)        # 8-byte Spill
	movq	%r13, 9416(%rsp)        # 8-byte Spill
	movl	%ebp, 9412(%rsp)        # 4-byte Spill
	movq	%rbx, 9400(%rsp)        # 8-byte Spill
	movq	%r10, 9392(%rsp)        # 8-byte Spill
	movq	%r11, 9384(%rsp)        # 8-byte Spill
	callq	trace_logger_log0
	movq	9480(%rsp), %rdi        # 8-byte Reload
	movq	9640(%rsp), %rsi        # 8-byte Reload
	movq	9672(%rsp), %rdx        # 8-byte Reload
	movq	9464(%rsp), %rcx        # 8-byte Reload
	movq	9536(%rsp), %r8         # 8-byte Reload
	movq	9464(%rsp), %r9         # 8-byte Reload
	movq	9528(%rsp), %rax        # 8-byte Reload
	movq	%rax, (%rsp)
	callq	trace_logger_log_int
	movq	9672(%rsp), %rdi        # 8-byte Reload
	movq	9640(%rsp), %rsi        # 8-byte Reload
	movq	11496(%rsp), %rdx       # 8-byte Reload
	movq	9672(%rsp), %rcx        # 8-byte Reload
	movq	9552(%rsp), %r8         # 8-byte Reload
	movq	9464(%rsp), %r9         # 8-byte Reload
	movq	9544(%rsp), %rax        # 8-byte Reload
	movq	%rax, (%rsp)
	callq	trace_logger_log_int
	movq	11496(%rsp), %rax       # 8-byte Reload
	addq	$1, %rax
	movq	9664(%rsp), %rdi        # 8-byte Reload
	movq	9640(%rsp), %rsi        # 8-byte Reload
	movq	%rax, %rdx
	movq	9672(%rsp), %rcx        # 8-byte Reload
	movq	9568(%rsp), %r8         # 8-byte Reload
	movq	9464(%rsp), %r9         # 8-byte Reload
	movq	9560(%rsp), %r10        # 8-byte Reload
	movq	%r10, (%rsp)
	movq	%rax, 9376(%rsp)        # 8-byte Spill
	callq	trace_logger_log_int
	movq	9440(%rsp), %rdi        # 8-byte Reload
	movq	9600(%rsp), %rsi        # 8-byte Reload
	movq	9592(%rsp), %rdx        # 8-byte Reload
	movq	9584(%rsp), %rcx        # 8-byte Reload
	movq	9576(%rsp), %r8         # 8-byte Reload
	movl	9412(%rsp), %r9d        # 4-byte Reload
	movl	$1, (%rsp)
	callq	trace_logger_log0
	movq	9480(%rsp), %rdi        # 8-byte Reload
	movq	9640(%rsp), %rsi        # 8-byte Reload
	movq	9392(%rsp), %rdx        # 8-byte Reload
	movq	9464(%rsp), %rcx        # 8-byte Reload
	movq	9616(%rsp), %r8         # 8-byte Reload
	movq	9464(%rsp), %r9         # 8-byte Reload
	movq	9608(%rsp), %rax        # 8-byte Reload
	movq	%rax, (%rsp)
	callq	trace_logger_log_int
	movq	9672(%rsp), %rdi        # 8-byte Reload
	movq	9640(%rsp), %rsi        # 8-byte Reload
	movq	9376(%rsp), %rdx        # 8-byte Reload
	movq	9672(%rsp), %rcx        # 8-byte Reload
	movq	9632(%rsp), %r8         # 8-byte Reload
	movq	9464(%rsp), %r9         # 8-byte Reload
	movq	9624(%rsp), %rax        # 8-byte Reload
	movq	%rax, (%rsp)
	callq	trace_logger_log_int
	movq	9376(%rsp), %rax        # 8-byte Reload
	cmpq	$3, %rax
	sete	%al
	movb	%al, %cl
	andb	$1, %cl
	movzbl	%cl, %ebp
	movl	%ebp, %edx
	movq	9664(%rsp), %rdi        # 8-byte Reload
	movq	9672(%rsp), %rsi        # 8-byte Reload
	movq	9672(%rsp), %rcx        # 8-byte Reload
	movq	9656(%rsp), %r8         # 8-byte Reload
	movq	9464(%rsp), %r9         # 8-byte Reload
	movq	9648(%rsp), %r10        # 8-byte Reload
	movq	%r10, (%rsp)
	movb	%al, 9375(%rsp)         # 1-byte Spill
	callq	trace_logger_log_int
	movq	9440(%rsp), %rdi        # 8-byte Reload
	movq	9432(%rsp), %rsi        # 8-byte Reload
	movq	9424(%rsp), %rdx        # 8-byte Reload
	movq	9416(%rsp), %rcx        # 8-byte Reload
	movq	9480(%rsp), %r8         # 8-byte Reload
	movl	9412(%rsp), %r9d        # 4-byte Reload
	movl	$1, (%rsp)
	callq	trace_logger_log0
	movq	9392(%rsp), %rdi        # 8-byte Reload
	movq	9464(%rsp), %rsi        # 8-byte Reload
	movq	9464(%rsp), %rdx        # 8-byte Reload
	movq	9672(%rsp), %rcx        # 8-byte Reload
	movq	9384(%rsp), %r8         # 8-byte Reload
	movq	9464(%rsp), %r9         # 8-byte Reload
	movq	9400(%rsp), %r10        # 8-byte Reload
	movq	%r10, (%rsp)
	callq	trace_logger_log_int
	movq	9480(%rsp), %rdi        # 8-byte Reload
	movq	9464(%rsp), %rsi        # 8-byte Reload
	movq	9464(%rsp), %rdx        # 8-byte Reload
	movq	9672(%rsp), %rcx        # 8-byte Reload
	movq	9496(%rsp), %r8         # 8-byte Reload
	movq	9464(%rsp), %r9         # 8-byte Reload
	movq	9448(%rsp), %r10        # 8-byte Reload
	movq	%r10, (%rsp)
	callq	trace_logger_log_int
	movb	9375(%rsp), %al         # 1-byte Reload
	andb	$1, %al
	movzbl	%al, %ebp
	movl	%ebp, %edx
	movq	9672(%rsp), %rdi        # 8-byte Reload
	movq	9672(%rsp), %rsi        # 8-byte Reload
	movq	9672(%rsp), %rcx        # 8-byte Reload
	movq	9456(%rsp), %r8         # 8-byte Reload
	movq	9464(%rsp), %r9         # 8-byte Reload
	movq	9472(%rsp), %r10        # 8-byte Reload
	movq	%r10, (%rsp)
	callq	trace_logger_log_int
	movb	9375(%rsp), %al         # 1-byte Reload
	testb	$1, %al
	movq	9376(%rsp), %rcx        # 8-byte Reload
	movl	9700(%rsp), %ebp        # 4-byte Reload
	movq	%rcx, 11512(%rsp)       # 8-byte Spill
	movl	%ebp, 11508(%rsp)       # 4-byte Spill
	jne	.LBB0_7
	jmp	.LBB0_4
.Ltmp39:
.LBB0_7:                                #   in Loop: Header=BB0_3 Depth=3
	movabsq	$1, %rax
	leaq	.L.str530, %r8
	movabsq	$0, %rcx
	leaq	.L.str531, %rdx
	movabsq	$2, %rsi
	leaq	.L.str528, %rdi
	leaq	.L.str529, %r9
	movabsq	$3, %r10
	leaq	.L.str526, %r11
	leaq	.L.str527, %rbx
	movabsq	$24, %r14
	leaq	.L.str523, %r15
	leaq	.L.str524, %r12
	leaq	.L.str525, %r13
	movl	$1, %ebp
	movq	%rax, 9360(%rsp)        # 8-byte Spill
	movabsq	$19134, %rax            # imm = 0x4ABE
	movq	%rax, 9352(%rsp)        # 8-byte Spill
	leaq	.L.str521, %rax
	movq	%rax, 9344(%rsp)        # 8-byte Spill
	leaq	.L.str522, %rax
	movq	%rax, 9336(%rsp)        # 8-byte Spill
	movabsq	$64, %rax
	movq	%rax, 9328(%rsp)        # 8-byte Spill
	leaq	.L.str519, %rax
	movq	%rax, 9320(%rsp)        # 8-byte Spill
	leaq	.L.str520, %rax
	movq	%rax, 9312(%rsp)        # 8-byte Spill
	movabsq	$62, %rax
	movq	%rax, 9304(%rsp)        # 8-byte Spill
	leaq	.L.str517, %rax
	movq	%rax, 9296(%rsp)        # 8-byte Spill
	leaq	.L.str518, %rax
	movq	%rax, 9288(%rsp)        # 8-byte Spill
	leaq	.L.str514, %rax
	movq	%rax, 9280(%rsp)        # 8-byte Spill
	leaq	.L.str515, %rax
	movq	%rax, 9272(%rsp)        # 8-byte Spill
	leaq	.L.str516, %rax
	movq	%rax, 9264(%rsp)        # 8-byte Spill
	movabsq	$46, %rax
	movq	%rax, 9256(%rsp)        # 8-byte Spill
	leaq	.L.str512, %rax
	movq	%rax, 9248(%rsp)        # 8-byte Spill
	leaq	.L.str513, %rax
	movq	%rax, 9240(%rsp)        # 8-byte Spill
	leaq	.L.str510, %rax
	movq	%rax, 9232(%rsp)        # 8-byte Spill
	leaq	.L.str511, %rax
	movq	%rax, 9224(%rsp)        # 8-byte Spill
	leaq	.L.str508, %rax
	movq	%rax, 9216(%rsp)        # 8-byte Spill
	leaq	.L.str509, %rax
	movq	%rax, 9208(%rsp)        # 8-byte Spill
	leaq	.L.str505, %rax
	movq	%rax, 9200(%rsp)        # 8-byte Spill
	leaq	.L.str506, %rax
	movq	%rax, 9192(%rsp)        # 8-byte Spill
	leaq	.L.str507, %rax
	movq	%rax, 9184(%rsp)        # 8-byte Spill
	movabsq	$8, %rax
	movq	%rax, 9176(%rsp)        # 8-byte Spill
	movabsq	$32, %rax
	movq	%rax, 9168(%rsp)        # 8-byte Spill
	leaq	.L.str503, %rax
	movq	%rax, 9160(%rsp)        # 8-byte Spill
	leaq	.L.str504, %rax
	movq	%rax, 9152(%rsp)        # 8-byte Spill
	leaq	.L.str501, %rax
	movq	%rax, 9144(%rsp)        # 8-byte Spill
	leaq	.L.str502, %rax
	movq	%rax, 9136(%rsp)        # 8-byte Spill
	leaq	.L.str498, %rax
	movq	%rax, 9128(%rsp)        # 8-byte Spill
	leaq	.L.str499, %rax
	movq	%rax, 9120(%rsp)        # 8-byte Spill
	leaq	.L.str500, %rax
	movq	%rax, 9112(%rsp)        # 8-byte Spill
	movabsq	$28, %rax
	movq	%rax, 9104(%rsp)        # 8-byte Spill
	leaq	.L.str496, %rax
	movq	%rax, 9096(%rsp)        # 8-byte Spill
	leaq	.L.str497, %rax
	movq	%rax, 9088(%rsp)        # 8-byte Spill
	leaq	sol, %rax
	movq	%rax, 9080(%rsp)        # 8-byte Spill
	leaq	.L.str494, %rax
	movq	%rax, 9072(%rsp)        # 8-byte Spill
	leaq	.L.str495, %rax
	movq	%rax, 9064(%rsp)        # 8-byte Spill
	leaq	.L.str492, %rax
	movq	%rax, 9056(%rsp)        # 8-byte Spill
	leaq	.L.str493, %rax
	movq	%rax, 9048(%rsp)        # 8-byte Spill
	leaq	.L.str490, %rax
	movq	%rax, 9040(%rsp)        # 8-byte Spill
	leaq	.L.str491, %rax
	movq	%rax, 9032(%rsp)        # 8-byte Spill
	leaq	.L.str487, %rax
	movq	%rax, 9024(%rsp)        # 8-byte Spill
	leaq	.L.str488, %rax
	movq	%rax, 9016(%rsp)        # 8-byte Spill
	leaq	.L.str489, %rax
	movq	%rax, 9008(%rsp)        # 8-byte Spill
	movabsq	$29, %rax
	movq	%rax, 9000(%rsp)        # 8-byte Spill
	leaq	.L.str485, %rax
	movq	%rax, 8992(%rsp)        # 8-byte Spill
	leaq	.L.str486, %rax
	movq	%rax, 8984(%rsp)        # 8-byte Spill
	leaq	.L.str483, %rax
	movq	%rax, 8976(%rsp)        # 8-byte Spill
	leaq	.L.str484, %rax
	movq	%rax, 8968(%rsp)        # 8-byte Spill
	leaq	.L.str481, %rax
	movq	%rax, 8960(%rsp)        # 8-byte Spill
	leaq	.L.str482, %rax
	movq	%rax, 8952(%rsp)        # 8-byte Spill
	leaq	.L.str478, %rax
	movq	%rax, 8944(%rsp)        # 8-byte Spill
	leaq	.L.str479, %rax
	movq	%rax, 8936(%rsp)        # 8-byte Spill
	leaq	.L.str480, %rax
	.loc	1 32 0                  # stencil.c:32:0
	movq	%rax, 8928(%rsp)        # 8-byte Spill
	movq	9168(%rsp), %rax        # 8-byte Reload
	movq	%rdi, 8920(%rsp)        # 8-byte Spill
	movq	%rax, %rdi
	movq	8944(%rsp), %rax        # 8-byte Reload
	movq	%rsi, 8912(%rsp)        # 8-byte Spill
	movq	%rax, %rsi
	movq	8936(%rsp), %rax        # 8-byte Reload
	movq	%rdx, 8904(%rsp)        # 8-byte Spill
	movq	%rax, %rdx
	movq	8928(%rsp), %rax        # 8-byte Reload
	movq	%rcx, 8896(%rsp)        # 8-byte Spill
	movq	%rax, %rcx
	movq	9176(%rsp), %rax        # 8-byte Reload
	movq	%r8, 8888(%rsp)         # 8-byte Spill
	movq	%rax, %r8
	movq	%r9, 8880(%rsp)         # 8-byte Spill
	movl	%ebp, %r9d
	movl	$1, (%rsp)
	movq	%r14, 8872(%rsp)        # 8-byte Spill
	movq	%r15, 8864(%rsp)        # 8-byte Spill
	movq	%r12, 8856(%rsp)        # 8-byte Spill
	movq	%r13, 8848(%rsp)        # 8-byte Spill
	movl	%ebp, 8844(%rsp)        # 4-byte Spill
	movq	%rbx, 8832(%rsp)        # 8-byte Spill
	movq	%r10, 8824(%rsp)        # 8-byte Spill
	movq	%r11, 8816(%rsp)        # 8-byte Spill
	callq	trace_logger_log0
	movq	8912(%rsp), %rdi        # 8-byte Reload
	movq	9328(%rsp), %rsi        # 8-byte Reload
	movq	11728(%rsp), %rdx       # 8-byte Reload
	movq	9360(%rsp), %rcx        # 8-byte Reload
	movq	8960(%rsp), %r8         # 8-byte Reload
	movq	8896(%rsp), %r9         # 8-byte Reload
	movq	8952(%rsp), %rax        # 8-byte Reload
	movq	%rax, (%rsp)
	callq	trace_logger_log_int
	movq	9360(%rsp), %rdi        # 8-byte Reload
	movq	9328(%rsp), %rsi        # 8-byte Reload
	movq	11712(%rsp), %rdx       # 8-byte Reload
	movq	9360(%rsp), %rcx        # 8-byte Reload
	movq	8976(%rsp), %r8         # 8-byte Reload
	movq	8896(%rsp), %r9         # 8-byte Reload
	movq	8968(%rsp), %rax        # 8-byte Reload
	movq	%rax, (%rsp)
	callq	trace_logger_log_int
	movq	11712(%rsp), %rax       # 8-byte Reload
	movq	11728(%rsp), %rcx       # 8-byte Reload
	addq	%rcx, %rax
	movq	9352(%rsp), %rdi        # 8-byte Reload
	movq	9328(%rsp), %rsi        # 8-byte Reload
	movq	%rax, %rdx
	movq	9360(%rsp), %rcx        # 8-byte Reload
	movq	8992(%rsp), %r8         # 8-byte Reload
	movq	8896(%rsp), %r9         # 8-byte Reload
	movq	8984(%rsp), %r10        # 8-byte Reload
	movq	%r10, (%rsp)
	movq	%rax, 8808(%rsp)        # 8-byte Spill
	callq	trace_logger_log_int
	movq	9168(%rsp), %rdi        # 8-byte Reload
	movq	9024(%rsp), %rsi        # 8-byte Reload
	movq	9016(%rsp), %rdx        # 8-byte Reload
	movq	9008(%rsp), %rcx        # 8-byte Reload
	movq	9000(%rsp), %r8         # 8-byte Reload
	movl	8844(%rsp), %r9d        # 4-byte Reload
	movl	$1, (%rsp)
	callq	trace_logger_log0
	movq	8824(%rsp), %rdi        # 8-byte Reload
	movq	9328(%rsp), %rsi        # 8-byte Reload
	movq	8808(%rsp), %rdx        # 8-byte Reload
	movq	9360(%rsp), %rcx        # 8-byte Reload
	movq	9040(%rsp), %r8         # 8-byte Reload
	movq	8896(%rsp), %r9         # 8-byte Reload
	movq	9032(%rsp), %rax        # 8-byte Reload
	movq	%rax, (%rsp)
	callq	trace_logger_log_int
	movq	8912(%rsp), %rdi        # 8-byte Reload
	movq	9328(%rsp), %rsi        # 8-byte Reload
	movq	8896(%rsp), %rdx        # 8-byte Reload
	movq	8896(%rsp), %rcx        # 8-byte Reload
	movq	9056(%rsp), %r8         # 8-byte Reload
	movq	8896(%rsp), %r9         # 8-byte Reload
	movq	9048(%rsp), %rax        # 8-byte Reload
	movq	%rax, (%rsp)
	callq	trace_logger_log_int
	movq	9360(%rsp), %rdi        # 8-byte Reload
	movq	9328(%rsp), %rsi        # 8-byte Reload
	movq	9080(%rsp), %rdx        # 8-byte Reload
	movq	9360(%rsp), %rcx        # 8-byte Reload
	movq	9072(%rsp), %r8         # 8-byte Reload
	movq	8896(%rsp), %r9         # 8-byte Reload
	movq	9064(%rsp), %rax        # 8-byte Reload
	movq	%rax, (%rsp)
	callq	trace_logger_log_int
	movq	8808(%rsp), %rax        # 8-byte Reload
	shlq	$2, %rax
	movq	9080(%rsp), %rcx        # 8-byte Reload
	addq	%rax, %rcx
	movq	9352(%rsp), %rdi        # 8-byte Reload
	movq	9328(%rsp), %rsi        # 8-byte Reload
	movq	%rcx, %rdx
	movq	9360(%rsp), %rax        # 8-byte Reload
	movq	%rcx, 8800(%rsp)        # 8-byte Spill
	movq	%rax, %rcx
	movq	9096(%rsp), %r8         # 8-byte Reload
	movq	8896(%rsp), %r9         # 8-byte Reload
	movq	9088(%rsp), %r10        # 8-byte Reload
	movq	%r10, (%rsp)
	callq	trace_logger_log_int
	movq	9168(%rsp), %rdi        # 8-byte Reload
	movq	9128(%rsp), %rsi        # 8-byte Reload
	movq	9120(%rsp), %rdx        # 8-byte Reload
	movq	9112(%rsp), %rcx        # 8-byte Reload
	movq	9104(%rsp), %r8         # 8-byte Reload
	movl	8844(%rsp), %r9d        # 4-byte Reload
	movl	$1, (%rsp)
	callq	trace_logger_log0
	movq	8912(%rsp), %rdi        # 8-byte Reload
	movq	9328(%rsp), %rsi        # 8-byte Reload
	movq	8800(%rsp), %rdx        # 8-byte Reload
	movq	9360(%rsp), %rcx        # 8-byte Reload
	movq	9144(%rsp), %r8         # 8-byte Reload
	movq	8896(%rsp), %r9         # 8-byte Reload
	movq	9136(%rsp), %rax        # 8-byte Reload
	movq	%rax, (%rsp)
	callq	trace_logger_log_int
	movl	9700(%rsp), %ebp        # 4-byte Reload
	movl	%ebp, %esi
	movl	%esi, %edx
	movq	9360(%rsp), %rdi        # 8-byte Reload
	movq	9168(%rsp), %rsi        # 8-byte Reload
	movq	9360(%rsp), %rcx        # 8-byte Reload
	movq	9160(%rsp), %r8         # 8-byte Reload
	movq	8896(%rsp), %r9         # 8-byte Reload
	movq	9152(%rsp), %rax        # 8-byte Reload
	movq	%rax, (%rsp)
	callq	trace_logger_log_int
	movq	8808(%rsp), %rax        # 8-byte Reload
	movl	9700(%rsp), %ebp        # 4-byte Reload
	movl	%ebp, sol(,%rax,4)
.Ltmp40:
	.loc	1 24 0                  # stencil.c:24:0
	movq	8872(%rsp), %rdi        # 8-byte Reload
	movq	9200(%rsp), %rsi        # 8-byte Reload
	movq	9192(%rsp), %rdx        # 8-byte Reload
	movq	9184(%rsp), %rcx        # 8-byte Reload
	movq	9176(%rsp), %r8         # 8-byte Reload
	movl	8844(%rsp), %r9d        # 4-byte Reload
	movl	$1, (%rsp)
	callq	trace_logger_log0
	movq	8912(%rsp), %rdi        # 8-byte Reload
	movq	9328(%rsp), %rsi        # 8-byte Reload
	movq	9360(%rsp), %rdx        # 8-byte Reload
	movq	8896(%rsp), %rcx        # 8-byte Reload
	movq	9216(%rsp), %r8         # 8-byte Reload
	movq	8896(%rsp), %r9         # 8-byte Reload
	movq	9208(%rsp), %rax        # 8-byte Reload
	movq	%rax, (%rsp)
	callq	trace_logger_log_int
	movq	9360(%rsp), %rdi        # 8-byte Reload
	movq	9328(%rsp), %rsi        # 8-byte Reload
	movq	11712(%rsp), %rdx       # 8-byte Reload
	movq	9360(%rsp), %rcx        # 8-byte Reload
	movq	9232(%rsp), %r8         # 8-byte Reload
	movq	8896(%rsp), %r9         # 8-byte Reload
	movq	9224(%rsp), %rax        # 8-byte Reload
	movq	%rax, (%rsp)
	callq	trace_logger_log_int
	movq	11712(%rsp), %rax       # 8-byte Reload
	addq	$1, %rax
	movq	9352(%rsp), %rdi        # 8-byte Reload
	movq	9328(%rsp), %rsi        # 8-byte Reload
	movq	%rax, %rdx
	movq	9360(%rsp), %rcx        # 8-byte Reload
	movq	9248(%rsp), %r8         # 8-byte Reload
	movq	8896(%rsp), %r9         # 8-byte Reload
	movq	9240(%rsp), %r10        # 8-byte Reload
	movq	%r10, (%rsp)
	movq	%rax, 8792(%rsp)        # 8-byte Spill
	callq	trace_logger_log_int
	movq	8872(%rsp), %rdi        # 8-byte Reload
	movq	9280(%rsp), %rsi        # 8-byte Reload
	movq	9272(%rsp), %rdx        # 8-byte Reload
	movq	9264(%rsp), %rcx        # 8-byte Reload
	movq	9256(%rsp), %r8         # 8-byte Reload
	movl	8844(%rsp), %r9d        # 4-byte Reload
	movl	$1, (%rsp)
	callq	trace_logger_log0
	movq	8912(%rsp), %rdi        # 8-byte Reload
	movq	9328(%rsp), %rsi        # 8-byte Reload
	movq	9304(%rsp), %rdx        # 8-byte Reload
	movq	8896(%rsp), %rcx        # 8-byte Reload
	movq	9296(%rsp), %r8         # 8-byte Reload
	movq	8896(%rsp), %r9         # 8-byte Reload
	movq	9288(%rsp), %rax        # 8-byte Reload
	movq	%rax, (%rsp)
	callq	trace_logger_log_int
	movq	9360(%rsp), %rdi        # 8-byte Reload
	movq	9328(%rsp), %rsi        # 8-byte Reload
	movq	8792(%rsp), %rdx        # 8-byte Reload
	movq	9360(%rsp), %rcx        # 8-byte Reload
	movq	9320(%rsp), %r8         # 8-byte Reload
	movq	8896(%rsp), %r9         # 8-byte Reload
	movq	9312(%rsp), %rax        # 8-byte Reload
	movq	%rax, (%rsp)
	callq	trace_logger_log_int
	movq	8792(%rsp), %rax        # 8-byte Reload
	cmpq	$62, %rax
	sete	%al
	movb	%al, %cl
	andb	$1, %cl
	movzbl	%cl, %ebp
	movl	%ebp, %edx
	movq	9352(%rsp), %rdi        # 8-byte Reload
	movq	9360(%rsp), %rsi        # 8-byte Reload
	movq	9360(%rsp), %rcx        # 8-byte Reload
	movq	9344(%rsp), %r8         # 8-byte Reload
	movq	8896(%rsp), %r9         # 8-byte Reload
	movq	9336(%rsp), %r10        # 8-byte Reload
	movq	%r10, (%rsp)
	movb	%al, 8791(%rsp)         # 1-byte Spill
	callq	trace_logger_log_int
	movq	8872(%rsp), %rdi        # 8-byte Reload
	movq	8864(%rsp), %rsi        # 8-byte Reload
	movq	8856(%rsp), %rdx        # 8-byte Reload
	movq	8848(%rsp), %rcx        # 8-byte Reload
	movq	8912(%rsp), %r8         # 8-byte Reload
	movl	8844(%rsp), %r9d        # 4-byte Reload
	movl	$1, (%rsp)
	callq	trace_logger_log0
	movq	8824(%rsp), %rdi        # 8-byte Reload
	movq	8896(%rsp), %rsi        # 8-byte Reload
	movq	8896(%rsp), %rdx        # 8-byte Reload
	movq	9360(%rsp), %rcx        # 8-byte Reload
	movq	8816(%rsp), %r8         # 8-byte Reload
	movq	8896(%rsp), %r9         # 8-byte Reload
	movq	8832(%rsp), %r10        # 8-byte Reload
	movq	%r10, (%rsp)
	callq	trace_logger_log_int
	movq	8912(%rsp), %rdi        # 8-byte Reload
	movq	8896(%rsp), %rsi        # 8-byte Reload
	movq	8896(%rsp), %rdx        # 8-byte Reload
	movq	9360(%rsp), %rcx        # 8-byte Reload
	movq	8920(%rsp), %r8         # 8-byte Reload
	movq	8896(%rsp), %r9         # 8-byte Reload
	movq	8880(%rsp), %r10        # 8-byte Reload
	movq	%r10, (%rsp)
	callq	trace_logger_log_int
	movb	8791(%rsp), %al         # 1-byte Reload
	andb	$1, %al
	movzbl	%al, %ebp
	movl	%ebp, %edx
	movq	9360(%rsp), %rdi        # 8-byte Reload
	movq	9360(%rsp), %rsi        # 8-byte Reload
	movq	9360(%rsp), %rcx        # 8-byte Reload
	movq	8888(%rsp), %r8         # 8-byte Reload
	movq	8896(%rsp), %r9         # 8-byte Reload
	movq	8904(%rsp), %r10        # 8-byte Reload
	movq	%r10, (%rsp)
	callq	trace_logger_log_int
	movb	8791(%rsp), %al         # 1-byte Reload
	testb	$1, %al
	movq	8792(%rsp), %rcx        # 8-byte Reload
	movq	%rcx, 11720(%rsp)       # 8-byte Spill
	jne	.LBB0_8
	jmp	.LBB0_3
.Ltmp41:
.LBB0_8:                                #   in Loop: Header=BB0_2 Depth=2
	movabsq	$1, %rax
	leaq	.L.str557, %r8
	movabsq	$0, %rcx
	leaq	.L.str558, %rdx
	movabsq	$2, %rsi
	leaq	.L.str555, %rdi
	leaq	.L.str556, %r9
	movabsq	$3, %r10
	leaq	.L.str553, %r11
	leaq	.L.str554, %rbx
	movabsq	$23, %r14
	leaq	.L.str550, %r15
	leaq	.L.str551, %r12
	leaq	.L.str552, %r13
	movl	$1, %ebp
	movq	%rax, 8776(%rsp)        # 8-byte Spill
	movabsq	$19134, %rax            # imm = 0x4ABE
	movq	%rax, 8768(%rsp)        # 8-byte Spill
	leaq	.L.str548, %rax
	movq	%rax, 8760(%rsp)        # 8-byte Spill
	leaq	.L.str549, %rax
	movq	%rax, 8752(%rsp)        # 8-byte Spill
	movabsq	$64, %rax
	movq	%rax, 8744(%rsp)        # 8-byte Spill
	leaq	.L.str546, %rax
	movq	%rax, 8736(%rsp)        # 8-byte Spill
	leaq	.L.str547, %rax
	movq	%rax, 8728(%rsp)        # 8-byte Spill
	movabsq	$126, %rax
	movq	%rax, 8720(%rsp)        # 8-byte Spill
	leaq	.L.str544, %rax
	movq	%rax, 8712(%rsp)        # 8-byte Spill
	leaq	.L.str545, %rax
	movq	%rax, 8704(%rsp)        # 8-byte Spill
	leaq	.L.str541, %rax
	movq	%rax, 8696(%rsp)        # 8-byte Spill
	leaq	.L.str542, %rax
	movq	%rax, 8688(%rsp)        # 8-byte Spill
	leaq	.L.str543, %rax
	movq	%rax, 8680(%rsp)        # 8-byte Spill
	movabsq	$46, %rax
	movq	%rax, 8672(%rsp)        # 8-byte Spill
	leaq	.L.str539, %rax
	movq	%rax, 8664(%rsp)        # 8-byte Spill
	leaq	.L.str540, %rax
	movq	%rax, 8656(%rsp)        # 8-byte Spill
	leaq	.L.str537, %rax
	movq	%rax, 8648(%rsp)        # 8-byte Spill
	leaq	.L.str538, %rax
	movq	%rax, 8640(%rsp)        # 8-byte Spill
	leaq	.L.str535, %rax
	movq	%rax, 8632(%rsp)        # 8-byte Spill
	leaq	.L.str536, %rax
	movq	%rax, 8624(%rsp)        # 8-byte Spill
	leaq	.L.str532, %rax
	movq	%rax, 8616(%rsp)        # 8-byte Spill
	leaq	.L.str533, %rax
	movq	%rax, 8608(%rsp)        # 8-byte Spill
	leaq	.L.str534, %rax
	movq	%rax, 8600(%rsp)        # 8-byte Spill
	movabsq	$8, %rax
	.loc	1 23 0                  # stencil.c:23:0
	movq	%rdi, 8592(%rsp)        # 8-byte Spill
	movq	%r14, %rdi
	movq	%rax, 8584(%rsp)        # 8-byte Spill
	movq	8616(%rsp), %rax        # 8-byte Reload
	movq	%rsi, 8576(%rsp)        # 8-byte Spill
	movq	%rax, %rsi
	movq	8608(%rsp), %rax        # 8-byte Reload
	movq	%rdx, 8568(%rsp)        # 8-byte Spill
	movq	%rax, %rdx
	movq	8600(%rsp), %rax        # 8-byte Reload
	movq	%rcx, 8560(%rsp)        # 8-byte Spill
	movq	%rax, %rcx
	movq	8584(%rsp), %rax        # 8-byte Reload
	movq	%r8, 8552(%rsp)         # 8-byte Spill
	movq	%rax, %r8
	movq	%r9, 8544(%rsp)         # 8-byte Spill
	movl	%ebp, %r9d
	movl	$1, (%rsp)
	movq	%r14, 8536(%rsp)        # 8-byte Spill
	movq	%r15, 8528(%rsp)        # 8-byte Spill
	movq	%r12, 8520(%rsp)        # 8-byte Spill
	movq	%r13, 8512(%rsp)        # 8-byte Spill
	movl	%ebp, 8508(%rsp)        # 4-byte Spill
	movq	%rbx, 8496(%rsp)        # 8-byte Spill
	movq	%r10, 8488(%rsp)        # 8-byte Spill
	movq	%r11, 8480(%rsp)        # 8-byte Spill
	callq	trace_logger_log0
	movq	8576(%rsp), %rdi        # 8-byte Reload
	movq	8744(%rsp), %rsi        # 8-byte Reload
	movq	8776(%rsp), %rdx        # 8-byte Reload
	movq	8560(%rsp), %rcx        # 8-byte Reload
	movq	8632(%rsp), %r8         # 8-byte Reload
	movq	8560(%rsp), %r9         # 8-byte Reload
	movq	8624(%rsp), %rax        # 8-byte Reload
	movq	%rax, (%rsp)
	callq	trace_logger_log_int
	movq	8776(%rsp), %rdi        # 8-byte Reload
	movq	8744(%rsp), %rsi        # 8-byte Reload
	movq	12016(%rsp), %rdx       # 8-byte Reload
	movq	8776(%rsp), %rcx        # 8-byte Reload
	movq	8648(%rsp), %r8         # 8-byte Reload
	movq	8560(%rsp), %r9         # 8-byte Reload
	movq	8640(%rsp), %rax        # 8-byte Reload
	movq	%rax, (%rsp)
	callq	trace_logger_log_int
	movq	12016(%rsp), %rax       # 8-byte Reload
	addq	$1, %rax
	movq	8768(%rsp), %rdi        # 8-byte Reload
	movq	8744(%rsp), %rsi        # 8-byte Reload
	movq	%rax, %rdx
	movq	8776(%rsp), %rcx        # 8-byte Reload
	movq	8664(%rsp), %r8         # 8-byte Reload
	movq	8560(%rsp), %r9         # 8-byte Reload
	movq	8656(%rsp), %r10        # 8-byte Reload
	movq	%r10, (%rsp)
	movq	%rax, 8472(%rsp)        # 8-byte Spill
	callq	trace_logger_log_int
	movq	8536(%rsp), %rdi        # 8-byte Reload
	movq	8696(%rsp), %rsi        # 8-byte Reload
	movq	8688(%rsp), %rdx        # 8-byte Reload
	movq	8680(%rsp), %rcx        # 8-byte Reload
	movq	8672(%rsp), %r8         # 8-byte Reload
	movl	8508(%rsp), %r9d        # 4-byte Reload
	movl	$1, (%rsp)
	callq	trace_logger_log0
	movq	8576(%rsp), %rdi        # 8-byte Reload
	movq	8744(%rsp), %rsi        # 8-byte Reload
	movq	8720(%rsp), %rdx        # 8-byte Reload
	movq	8560(%rsp), %rcx        # 8-byte Reload
	movq	8712(%rsp), %r8         # 8-byte Reload
	movq	8560(%rsp), %r9         # 8-byte Reload
	movq	8704(%rsp), %rax        # 8-byte Reload
	movq	%rax, (%rsp)
	callq	trace_logger_log_int
	movq	8776(%rsp), %rdi        # 8-byte Reload
	movq	8744(%rsp), %rsi        # 8-byte Reload
	movq	8472(%rsp), %rdx        # 8-byte Reload
	movq	8776(%rsp), %rcx        # 8-byte Reload
	movq	8736(%rsp), %r8         # 8-byte Reload
	movq	8560(%rsp), %r9         # 8-byte Reload
	movq	8728(%rsp), %rax        # 8-byte Reload
	movq	%rax, (%rsp)
	callq	trace_logger_log_int
	movq	8472(%rsp), %rax        # 8-byte Reload
	cmpq	$126, %rax
	sete	%al
	movb	%al, %cl
	andb	$1, %cl
	movzbl	%cl, %ebp
	movl	%ebp, %edx
	movq	8768(%rsp), %rdi        # 8-byte Reload
	movq	8776(%rsp), %rsi        # 8-byte Reload
	movq	8776(%rsp), %rcx        # 8-byte Reload
	movq	8760(%rsp), %r8         # 8-byte Reload
	movq	8560(%rsp), %r9         # 8-byte Reload
	movq	8752(%rsp), %r10        # 8-byte Reload
	movq	%r10, (%rsp)
	movb	%al, 8471(%rsp)         # 1-byte Spill
	callq	trace_logger_log_int
	movq	8536(%rsp), %rdi        # 8-byte Reload
	movq	8528(%rsp), %rsi        # 8-byte Reload
	movq	8520(%rsp), %rdx        # 8-byte Reload
	movq	8512(%rsp), %rcx        # 8-byte Reload
	movq	8576(%rsp), %r8         # 8-byte Reload
	movl	8508(%rsp), %r9d        # 4-byte Reload
	movl	$1, (%rsp)
	callq	trace_logger_log0
	movq	8488(%rsp), %rdi        # 8-byte Reload
	movq	8560(%rsp), %rsi        # 8-byte Reload
	movq	8560(%rsp), %rdx        # 8-byte Reload
	movq	8776(%rsp), %rcx        # 8-byte Reload
	movq	8480(%rsp), %r8         # 8-byte Reload
	movq	8560(%rsp), %r9         # 8-byte Reload
	movq	8496(%rsp), %r10        # 8-byte Reload
	movq	%r10, (%rsp)
	callq	trace_logger_log_int
	movq	8576(%rsp), %rdi        # 8-byte Reload
	movq	8560(%rsp), %rsi        # 8-byte Reload
	movq	8560(%rsp), %rdx        # 8-byte Reload
	movq	8776(%rsp), %rcx        # 8-byte Reload
	movq	8592(%rsp), %r8         # 8-byte Reload
	movq	8560(%rsp), %r9         # 8-byte Reload
	movq	8544(%rsp), %r10        # 8-byte Reload
	movq	%r10, (%rsp)
	callq	trace_logger_log_int
	movb	8471(%rsp), %al         # 1-byte Reload
	andb	$1, %al
	movzbl	%al, %ebp
	movl	%ebp, %edx
	movq	8776(%rsp), %rdi        # 8-byte Reload
	movq	8776(%rsp), %rsi        # 8-byte Reload
	movq	8776(%rsp), %rcx        # 8-byte Reload
	movq	8552(%rsp), %r8         # 8-byte Reload
	movq	8560(%rsp), %r9         # 8-byte Reload
	movq	8568(%rsp), %r10        # 8-byte Reload
	movq	%r10, (%rsp)
	callq	trace_logger_log_int
	movb	8471(%rsp), %al         # 1-byte Reload
	testb	$1, %al
	movq	8472(%rsp), %rcx        # 8-byte Reload
	movq	%rcx, 12024(%rsp)       # 8-byte Spill
	jne	.LBB0_9
	jmp	.LBB0_2
.Ltmp42:
.LBB0_9:                                #   in Loop: Header=BB0_1 Depth=1
	movabsq	$12345, %rax            # imm = 0x3039
	movabsq	$64, %rcx
	movabsq	$1, %rdx
	leaq	.L.str595, %r8
	movabsq	$0, %rsi
	leaq	.L.str596, %rdi
	leaq	.L.str593, %r9
	leaq	.L.str594, %r10
	movabsq	$24601, %r11            # imm = 0x6019
	movabsq	$32768, %rbx            # imm = 0x8000
	leaq	.L.str591, %r14
	leaq	.L.str592, %r15
	movabsq	$5, %r12
	leaq	.L.str589, %r13
	leaq	.L.str590, %rbp
	movq	%rax, 8456(%rsp)        # 8-byte Spill
	leaq	.L.str587, %rax
	movq	%rax, 8448(%rsp)        # 8-byte Spill
	leaq	.L.str588, %rax
	movq	%rax, 8440(%rsp)        # 8-byte Spill
	movabsq	$4, %rax
	movq	%rax, 8432(%rsp)        # 8-byte Spill
	leaq	.L.str585, %rax
	movq	%rax, 8424(%rsp)        # 8-byte Spill
	leaq	.L.str586, %rax
	movq	%rax, 8416(%rsp)        # 8-byte Spill
	leaq	.L.str583, %rax
	movq	%rax, 8408(%rsp)        # 8-byte Spill
	leaq	.L.str584, %rax
	movq	%rax, 8400(%rsp)        # 8-byte Spill
	movabsq	$3, %rax
	movq	%rax, 8392(%rsp)        # 8-byte Spill
	leaq	.L.str581, %rax
	movq	%rax, 8384(%rsp)        # 8-byte Spill
	leaq	.L.str582, %rax
	movq	%rax, 8376(%rsp)        # 8-byte Spill
	leaq	sol, %rax
	movq	%rax, 8368(%rsp)        # 8-byte Spill
	leaq	.L.str579, %rax
	movq	%rax, 8360(%rsp)        # 8-byte Spill
	leaq	.L.str580, %rax
	movq	%rax, 8352(%rsp)        # 8-byte Spill
	movabsq	$2, %rax
	movq	%rax, 8344(%rsp)        # 8-byte Spill
	leaq	.L.str577, %rax
	movq	%rax, 8336(%rsp)        # 8-byte Spill
	leaq	.L.str578, %rax
	movq	%rax, 8328(%rsp)        # 8-byte Spill
	leaq	.L.str575, %rax
	movq	%rax, 8320(%rsp)        # 8-byte Spill
	leaq	.L.str576, %rax
	movq	%rax, 8312(%rsp)        # 8-byte Spill
	leaq	.L.str573, %rax
	movq	%rax, 8304(%rsp)        # 8-byte Spill
	leaq	.L.str574, %rax
	movq	%rax, 8296(%rsp)        # 8-byte Spill
	movabsq	$8, %rax
	movq	%rax, 8288(%rsp)        # 8-byte Spill
	leaq	dmaStore, %rax
	movq	%rax, 8280(%rsp)        # 8-byte Spill
	leaq	.L.str571, %rax
	movq	%rax, 8272(%rsp)        # 8-byte Spill
	leaq	.L.str572, %rax
	movq	%rax, 8264(%rsp)        # 8-byte Spill
	movabsq	$36, %rax
	movq	%rax, 8256(%rsp)        # 8-byte Spill
	leaq	.L.str568, %rax
	movq	%rax, 8248(%rsp)        # 8-byte Spill
	leaq	.L.str569, %rax
	movq	%rax, 8240(%rsp)        # 8-byte Spill
	leaq	.L.str570, %rax
	movq	%rax, 8232(%rsp)        # 8-byte Spill
	movabsq	$98, %rax
	movq	%rsi, 8224(%rsp)        # 8-byte Spill
	movl	$1, %esi
	movq	%rax, 8216(%rsp)        # 8-byte Spill
	movabsq	$19134, %rax            # imm = 0x4ABE
	movq	%rax, 8208(%rsp)        # 8-byte Spill
	leaq	.L.str566, %rax
	movq	%rax, 8200(%rsp)        # 8-byte Spill
	leaq	.L.str567, %rax
	movq	%rax, 8192(%rsp)        # 8-byte Spill
	leaq	.L.str564, %rax
	movq	%rax, 8184(%rsp)        # 8-byte Spill
	leaq	.L.str565, %rax
	movq	%rax, 8176(%rsp)        # 8-byte Spill
	movabsq	$65572, %rax            # imm = 0x10024
	movq	%rax, 8168(%rsp)        # 8-byte Spill
	leaq	.L.str562, %rax
	movq	%rax, 8160(%rsp)        # 8-byte Spill
	leaq	.L.str563, %rax
	movq	%rax, 8152(%rsp)        # 8-byte Spill
	leaq	.L.str559, %rax
	movq	%rax, 8144(%rsp)        # 8-byte Spill
	leaq	.L.str560, %rax
	movq	%rax, 8136(%rsp)        # 8-byte Spill
	leaq	.L.str561, %rax
	movq	%rax, 8128(%rsp)        # 8-byte Spill
	movabsq	$12, %rax
	.loc	1 36 0                  # stencil.c:36:0
	movq	%rax, 8120(%rsp)        # 8-byte Spill
	movq	8256(%rsp), %rax        # 8-byte Reload
	movq	%rdi, 8112(%rsp)        # 8-byte Spill
	movq	%rax, %rdi
	movq	8144(%rsp), %rax        # 8-byte Reload
	movl	%esi, 8108(%rsp)        # 4-byte Spill
	movq	%rax, %rsi
	movq	8136(%rsp), %rax        # 8-byte Reload
	movq	%rdx, 8096(%rsp)        # 8-byte Spill
	movq	%rax, %rdx
	movq	8128(%rsp), %rax        # 8-byte Reload
	movq	%rcx, 8088(%rsp)        # 8-byte Spill
	movq	%rax, %rcx
	movq	8120(%rsp), %rax        # 8-byte Reload
	movq	%r8, 8080(%rsp)         # 8-byte Spill
	movq	%rax, %r8
	movl	8108(%rsp), %eax        # 4-byte Reload
	movq	%r9, 8072(%rsp)         # 8-byte Spill
	movl	%eax, %r9d
	movl	$1, (%rsp)
	movq	%r15, 8064(%rsp)        # 8-byte Spill
	movq	%r12, 8056(%rsp)        # 8-byte Spill
	movq	%r14, 8048(%rsp)        # 8-byte Spill
	movq	%r13, 8040(%rsp)        # 8-byte Spill
	movq	%rbp, 8032(%rsp)        # 8-byte Spill
	movq	%rbx, 8024(%rsp)        # 8-byte Spill
	movq	%r10, 8016(%rsp)        # 8-byte Spill
	movq	%r11, 8008(%rsp)        # 8-byte Spill
	callq	trace_logger_log0
	movq	8344(%rsp), %rdi        # 8-byte Reload
	movq	8088(%rsp), %rsi        # 8-byte Reload
	movq	8168(%rsp), %rdx        # 8-byte Reload
	movq	8224(%rsp), %rcx        # 8-byte Reload
	movq	8160(%rsp), %r8         # 8-byte Reload
	movq	8224(%rsp), %r9         # 8-byte Reload
	movq	8152(%rsp), %r10        # 8-byte Reload
	movq	%r10, (%rsp)
	callq	trace_logger_log_int
	movq	8096(%rsp), %rdi        # 8-byte Reload
	movq	8088(%rsp), %rsi        # 8-byte Reload
	movq	12216(%rsp), %rdx       # 8-byte Reload
	movq	8096(%rsp), %rcx        # 8-byte Reload
	movq	8184(%rsp), %r8         # 8-byte Reload
	movq	8224(%rsp), %r9         # 8-byte Reload
	movq	8176(%rsp), %r10        # 8-byte Reload
	movq	%r10, (%rsp)
	callq	trace_logger_log_int
	movq	12216(%rsp), %rcx       # 8-byte Reload
	imulq	$65572, %rcx, %rdx      # imm = 0x10024
	movq	8208(%rsp), %rdi        # 8-byte Reload
	movq	8088(%rsp), %rsi        # 8-byte Reload
	movq	%rdx, 8000(%rsp)        # 8-byte Spill
	movq	8096(%rsp), %rcx        # 8-byte Reload
	movq	8200(%rsp), %r8         # 8-byte Reload
	movq	8224(%rsp), %r9         # 8-byte Reload
	movq	8192(%rsp), %r10        # 8-byte Reload
	movq	%r10, (%rsp)
	callq	trace_logger_log_int
	movq	8256(%rsp), %rdi        # 8-byte Reload
	movq	8248(%rsp), %rsi        # 8-byte Reload
	movq	8240(%rsp), %rdx        # 8-byte Reload
	movq	8232(%rsp), %rcx        # 8-byte Reload
	movq	8216(%rsp), %r8         # 8-byte Reload
	movl	8108(%rsp), %r9d        # 4-byte Reload
	movl	$1, (%rsp)
	callq	trace_logger_log0
	movq	8288(%rsp), %rdi        # 8-byte Reload
	movq	8088(%rsp), %rsi        # 8-byte Reload
	movq	8280(%rsp), %rdx        # 8-byte Reload
	movq	8096(%rsp), %rcx        # 8-byte Reload
	movq	8272(%rsp), %r8         # 8-byte Reload
	movq	8224(%rsp), %r9         # 8-byte Reload
	movq	8264(%rsp), %r10        # 8-byte Reload
	movq	%r10, (%rsp)
	callq	trace_logger_log_int
	movq	8096(%rsp), %rdi        # 8-byte Reload
	movq	8088(%rsp), %rsi        # 8-byte Reload
	movq	12232(%rsp), %rdx       # 8-byte Reload
	movq	8096(%rsp), %rcx        # 8-byte Reload
	movq	8304(%rsp), %r8         # 8-byte Reload
	movq	8224(%rsp), %r9         # 8-byte Reload
	movq	8296(%rsp), %r10        # 8-byte Reload
	movq	%r10, (%rsp)
	callq	trace_logger_log_int
	movq	8008(%rsp), %rdi        # 8-byte Reload
	movq	8088(%rsp), %rsi        # 8-byte Reload
	movq	12232(%rsp), %rdx       # 8-byte Reload
	movq	8096(%rsp), %rcx        # 8-byte Reload
	movq	8320(%rsp), %r8         # 8-byte Reload
	movq	8224(%rsp), %r9         # 8-byte Reload
	movq	8312(%rsp), %r10        # 8-byte Reload
	movq	%r10, (%rsp)
	callq	trace_logger_log_int
	movq	8344(%rsp), %rdi        # 8-byte Reload
	movq	8088(%rsp), %rsi        # 8-byte Reload
	movq	8368(%rsp), %rdx        # 8-byte Reload
	movq	8224(%rsp), %rcx        # 8-byte Reload
	movq	8336(%rsp), %r8         # 8-byte Reload
	movq	8224(%rsp), %r9         # 8-byte Reload
	movq	8328(%rsp), %r10        # 8-byte Reload
	movq	%r10, (%rsp)
	callq	trace_logger_log_int
	movq	8008(%rsp), %rdi        # 8-byte Reload
	movq	8088(%rsp), %rsi        # 8-byte Reload
	movq	8368(%rsp), %rdx        # 8-byte Reload
	movq	8096(%rsp), %rcx        # 8-byte Reload
	movq	8360(%rsp), %r8         # 8-byte Reload
	movq	8224(%rsp), %r9         # 8-byte Reload
	movq	8352(%rsp), %r10        # 8-byte Reload
	movq	%r10, (%rsp)
	callq	trace_logger_log_int
	movq	8392(%rsp), %rdi        # 8-byte Reload
	movq	8088(%rsp), %rsi        # 8-byte Reload
	movq	8000(%rsp), %rdx        # 8-byte Reload
	movq	8096(%rsp), %rcx        # 8-byte Reload
	movq	8384(%rsp), %r8         # 8-byte Reload
	movq	8224(%rsp), %r9         # 8-byte Reload
	movq	8376(%rsp), %r10        # 8-byte Reload
	movq	%r10, (%rsp)
	callq	trace_logger_log_int
	movq	8008(%rsp), %rdi        # 8-byte Reload
	movq	8088(%rsp), %rsi        # 8-byte Reload
	movq	8000(%rsp), %rdx        # 8-byte Reload
	movq	8096(%rsp), %rcx        # 8-byte Reload
	movq	8408(%rsp), %r8         # 8-byte Reload
	movq	8224(%rsp), %r9         # 8-byte Reload
	movq	8400(%rsp), %r10        # 8-byte Reload
	movq	%r10, (%rsp)
	callq	trace_logger_log_int
	movq	8432(%rsp), %rdi        # 8-byte Reload
	movq	8088(%rsp), %rsi        # 8-byte Reload
	movq	8224(%rsp), %rdx        # 8-byte Reload
	movq	8224(%rsp), %rcx        # 8-byte Reload
	movq	8424(%rsp), %r8         # 8-byte Reload
	movq	8224(%rsp), %r9         # 8-byte Reload
	movq	8416(%rsp), %r10        # 8-byte Reload
	movq	%r10, (%rsp)
	callq	trace_logger_log_int
	movq	8008(%rsp), %rdi        # 8-byte Reload
	movq	8088(%rsp), %rsi        # 8-byte Reload
	movq	8224(%rsp), %rdx        # 8-byte Reload
	movq	8096(%rsp), %rcx        # 8-byte Reload
	movq	8448(%rsp), %r8         # 8-byte Reload
	movq	8224(%rsp), %r9         # 8-byte Reload
	movq	8440(%rsp), %r10        # 8-byte Reload
	movq	%r10, (%rsp)
	callq	trace_logger_log_int
	movq	8056(%rsp), %rdi        # 8-byte Reload
	movq	8088(%rsp), %rsi        # 8-byte Reload
	movq	8024(%rsp), %rdx        # 8-byte Reload
	movq	8224(%rsp), %rcx        # 8-byte Reload
	movq	8040(%rsp), %r8         # 8-byte Reload
	movq	8224(%rsp), %r9         # 8-byte Reload
	movq	8032(%rsp), %r10        # 8-byte Reload
	movq	%r10, (%rsp)
	callq	trace_logger_log_int
	movq	8008(%rsp), %rdi        # 8-byte Reload
	movq	8088(%rsp), %rsi        # 8-byte Reload
	movq	8024(%rsp), %rdx        # 8-byte Reload
	movq	8096(%rsp), %rcx        # 8-byte Reload
	movq	8048(%rsp), %r8         # 8-byte Reload
	movq	8224(%rsp), %r9         # 8-byte Reload
	movq	8064(%rsp), %r10        # 8-byte Reload
	movq	%r10, (%rsp)
	callq	trace_logger_log_int
	movq	8456(%rsp), %rdi        # 8-byte Reload
	movq	8088(%rsp), %rsi        # 8-byte Reload
	movq	8224(%rsp), %rdx        # 8-byte Reload
	movq	8096(%rsp), %rcx        # 8-byte Reload
	movq	8072(%rsp), %r8         # 8-byte Reload
	movq	8224(%rsp), %r9         # 8-byte Reload
	movq	8016(%rsp), %r10        # 8-byte Reload
	movq	%r10, (%rsp)
	callq	trace_logger_log_int
	movq	8456(%rsp), %rdi        # 8-byte Reload
	movq	8088(%rsp), %rsi        # 8-byte Reload
	movq	14128(%rsp), %rdx       # 8-byte Reload
	movq	8096(%rsp), %rcx        # 8-byte Reload
	movq	8080(%rsp), %r8         # 8-byte Reload
	movq	8224(%rsp), %r9         # 8-byte Reload
	movq	8112(%rsp), %r10        # 8-byte Reload
	movq	%r10, (%rsp)
	callq	trace_logger_log_int
	movq	%rsp, %rcx
	movq	14128(%rsp), %rdx       # 8-byte Reload
	movq	%rdx, (%rcx)
	movl	$sol, %eax
	movl	%eax, %esi
	movl	$32768, %eax            # imm = 0x8000
	movl	%eax, %r8d
	xorl	%eax, %eax
	movl	%eax, %ecx
	movq	12232(%rsp), %rdi       # 8-byte Reload
	movq	8000(%rsp), %rdx        # 8-byte Reload
	movq	%rcx, 7992(%rsp)        # 8-byte Spill
	movq	7992(%rsp), %r9         # 8-byte Reload
	callq	dmaStore
	movabsq	$0, %rcx
	movabsq	$1, %rdx
	leaq	.L.str622, %r8
	leaq	.L.str623, %rsi
	movabsq	$2, %rdi
	leaq	.L.str620, %r9
	leaq	.L.str621, %r10
	movabsq	$3, %r11
	leaq	.L.str618, %rbx
	leaq	.L.str619, %r14
	movabsq	$38, %r15
	leaq	.L.str615, %r12
	leaq	.L.str616, %r13
	leaq	.L.str617, %rbp
	movq	%rsi, 7984(%rsp)        # 8-byte Spill
	movl	$1, %esi
	movq	%rax, 7976(%rsp)        # 8-byte Spill
	movabsq	$19134, %rax            # imm = 0x4ABE
	movq	%rax, 7968(%rsp)        # 8-byte Spill
	leaq	.L.str613, %rax
	movq	%rax, 7960(%rsp)        # 8-byte Spill
	leaq	.L.str614, %rax
	movq	%rax, 7952(%rsp)        # 8-byte Spill
	movabsq	$32, %rax
	movq	%rax, 7944(%rsp)        # 8-byte Spill
	leaq	.L.str611, %rax
	movq	%rax, 7936(%rsp)        # 8-byte Spill
	leaq	.L.str612, %rax
	movq	%rax, 7928(%rsp)        # 8-byte Spill
	leaq	.L.str609, %rax
	movq	%rax, 7920(%rsp)        # 8-byte Spill
	leaq	.L.str610, %rax
	movq	%rax, 7912(%rsp)        # 8-byte Spill
	leaq	.L.str606, %rax
	movq	%rax, 7904(%rsp)        # 8-byte Spill
	leaq	.L.str607, %rax
	movq	%rax, 7896(%rsp)        # 8-byte Spill
	leaq	.L.str608, %rax
	movq	%rax, 7888(%rsp)        # 8-byte Spill
	movabsq	$46, %rax
	movq	%rax, 7880(%rsp)        # 8-byte Spill
	leaq	.L.str604, %rax
	movq	%rax, 7872(%rsp)        # 8-byte Spill
	leaq	.L.str605, %rax
	movq	%rax, 7864(%rsp)        # 8-byte Spill
	movabsq	$64, %rax
	movq	%rax, 7856(%rsp)        # 8-byte Spill
	leaq	.L.str602, %rax
	movq	%rax, 7848(%rsp)        # 8-byte Spill
	leaq	.L.str603, %rax
	movq	%rax, 7840(%rsp)        # 8-byte Spill
	leaq	.L.str599, %rax
	movq	%rax, 7832(%rsp)        # 8-byte Spill
	leaq	.L.str600, %rax
	movq	%rax, 7824(%rsp)        # 8-byte Spill
	leaq	.L.str601, %rax
	movq	%rax, 7816(%rsp)        # 8-byte Spill
	movabsq	$33, %rax
	movq	%rax, 7808(%rsp)        # 8-byte Spill
	leaq	.L.str597, %rax
	movq	%rax, 7800(%rsp)        # 8-byte Spill
	leaq	.L.str598, %rax
	.loc	1 38 0                  # stencil.c:38:0
.Ltmp43:
	movq	%rax, 7792(%rsp)        # 8-byte Spill
	movq	7968(%rsp), %rax        # 8-byte Reload
	movq	%rdi, 7784(%rsp)        # 8-byte Spill
	movq	%rax, %rdi
	movq	7856(%rsp), %rax        # 8-byte Reload
	movl	%esi, 7780(%rsp)        # 4-byte Spill
	movq	%rax, %rsi
	movq	7976(%rsp), %rax        # 8-byte Reload
	movq	%rdx, 7768(%rsp)        # 8-byte Spill
	movq	%rax, %rdx
	movq	7768(%rsp), %rax        # 8-byte Reload
	movq	%rcx, 7760(%rsp)        # 8-byte Spill
	movq	%rax, %rcx
	movq	7800(%rsp), %rax        # 8-byte Reload
	movq	%r8, 7752(%rsp)         # 8-byte Spill
	movq	%rax, %r8
	movq	7760(%rsp), %rax        # 8-byte Reload
	movq	%r9, 7744(%rsp)         # 8-byte Spill
	movq	%rax, %r9
	movq	7792(%rsp), %rax        # 8-byte Reload
	movq	%rax, (%rsp)
	movq	%r15, 7736(%rsp)        # 8-byte Spill
	movq	%r12, 7728(%rsp)        # 8-byte Spill
	movq	%r14, 7720(%rsp)        # 8-byte Spill
	movq	%r13, 7712(%rsp)        # 8-byte Spill
	movq	%rbp, 7704(%rsp)        # 8-byte Spill
	movq	%rbx, 7696(%rsp)        # 8-byte Spill
	movq	%r10, 7688(%rsp)        # 8-byte Spill
	movq	%r11, 7680(%rsp)        # 8-byte Spill
	callq	trace_logger_log_int
	movq	7736(%rsp), %rdi        # 8-byte Reload
	movq	7832(%rsp), %rsi        # 8-byte Reload
	movq	7824(%rsp), %rdx        # 8-byte Reload
	movq	7816(%rsp), %rcx        # 8-byte Reload
	movq	7808(%rsp), %r8         # 8-byte Reload
	movl	7780(%rsp), %r9d        # 4-byte Reload
	movl	$1, (%rsp)
	callq	trace_logger_log0
	movq	7768(%rsp), %rdi        # 8-byte Reload
	movq	7856(%rsp), %rsi        # 8-byte Reload
	movq	12216(%rsp), %rdx       # 8-byte Reload
	movq	7768(%rsp), %rcx        # 8-byte Reload
	movq	7848(%rsp), %r8         # 8-byte Reload
	movq	7760(%rsp), %r9         # 8-byte Reload
	movq	7840(%rsp), %rax        # 8-byte Reload
	movq	%rax, (%rsp)
	callq	trace_logger_log_int
	movq	12216(%rsp), %rax       # 8-byte Reload
	movl	%eax, %esi
	movl	%esi, %edi
	movl	%edi, %edx
	movq	7968(%rsp), %rdi        # 8-byte Reload
	movq	7944(%rsp), %rcx        # 8-byte Reload
	movl	%esi, 7676(%rsp)        # 4-byte Spill
	movq	%rcx, %rsi
	movq	7768(%rsp), %rcx        # 8-byte Reload
	movq	7872(%rsp), %r8         # 8-byte Reload
	movq	7760(%rsp), %r9         # 8-byte Reload
	movq	7864(%rsp), %r10        # 8-byte Reload
	movq	%r10, (%rsp)
	callq	trace_logger_log_int
	movq	7736(%rsp), %rdi        # 8-byte Reload
	movq	7904(%rsp), %rsi        # 8-byte Reload
	movq	7896(%rsp), %rdx        # 8-byte Reload
	movq	7888(%rsp), %rcx        # 8-byte Reload
	movq	7880(%rsp), %r8         # 8-byte Reload
	movl	7780(%rsp), %r9d        # 4-byte Reload
	movl	$1, (%rsp)
	callq	trace_logger_log0
	movq	7784(%rsp), %rdi        # 8-byte Reload
	movq	7944(%rsp), %rsi        # 8-byte Reload
	movq	7784(%rsp), %rdx        # 8-byte Reload
	movq	7760(%rsp), %rcx        # 8-byte Reload
	movq	7920(%rsp), %r8         # 8-byte Reload
	movq	7760(%rsp), %r9         # 8-byte Reload
	movq	7912(%rsp), %rax        # 8-byte Reload
	movq	%rax, (%rsp)
	callq	trace_logger_log_int
	movl	7676(%rsp), %esi        # 4-byte Reload
	movl	%esi, %esi
	movl	%esi, %edx
	movq	7768(%rsp), %rdi        # 8-byte Reload
	movq	7944(%rsp), %rsi        # 8-byte Reload
	movq	7768(%rsp), %rcx        # 8-byte Reload
	movq	7936(%rsp), %r8         # 8-byte Reload
	movq	7760(%rsp), %r9         # 8-byte Reload
	movq	7928(%rsp), %rax        # 8-byte Reload
	movq	%rax, (%rsp)
	callq	trace_logger_log_int
	movl	7676(%rsp), %esi        # 4-byte Reload
	cmpl	$2, %esi
	setl	%al
	movb	%al, %cl
	andb	$1, %cl
	movzbl	%cl, %ecx
	movl	%ecx, %edx
	movq	7968(%rsp), %rdi        # 8-byte Reload
	movq	7768(%rsp), %rsi        # 8-byte Reload
	movq	7768(%rsp), %rcx        # 8-byte Reload
	movq	7960(%rsp), %r8         # 8-byte Reload
	movq	7760(%rsp), %r9         # 8-byte Reload
	movq	7952(%rsp), %r10        # 8-byte Reload
	movq	%r10, (%rsp)
	movb	%al, 7675(%rsp)         # 1-byte Spill
	callq	trace_logger_log_int
	movq	7736(%rsp), %rdi        # 8-byte Reload
	movq	7728(%rsp), %rsi        # 8-byte Reload
	movq	7712(%rsp), %rdx        # 8-byte Reload
	movq	7704(%rsp), %rcx        # 8-byte Reload
	movq	7784(%rsp), %r8         # 8-byte Reload
	movl	7780(%rsp), %r9d        # 4-byte Reload
	movl	$1, (%rsp)
	callq	trace_logger_log0
	movq	7680(%rsp), %rdi        # 8-byte Reload
	movq	7760(%rsp), %rsi        # 8-byte Reload
	movq	7760(%rsp), %rdx        # 8-byte Reload
	movq	7768(%rsp), %rcx        # 8-byte Reload
	movq	7696(%rsp), %r8         # 8-byte Reload
	movq	7760(%rsp), %r9         # 8-byte Reload
	movq	7720(%rsp), %r10        # 8-byte Reload
	movq	%r10, (%rsp)
	callq	trace_logger_log_int
	movq	7784(%rsp), %rdi        # 8-byte Reload
	movq	7760(%rsp), %rsi        # 8-byte Reload
	movq	7760(%rsp), %rdx        # 8-byte Reload
	movq	7768(%rsp), %rcx        # 8-byte Reload
	movq	7744(%rsp), %r8         # 8-byte Reload
	movq	7760(%rsp), %r9         # 8-byte Reload
	movq	7688(%rsp), %r10        # 8-byte Reload
	movq	%r10, (%rsp)
	callq	trace_logger_log_int
	movb	7675(%rsp), %al         # 1-byte Reload
	andb	$1, %al
	movzbl	%al, %eax
	movl	%eax, %edx
	movq	7768(%rsp), %rdi        # 8-byte Reload
	movq	7768(%rsp), %rsi        # 8-byte Reload
	movq	7768(%rsp), %rcx        # 8-byte Reload
	movq	7752(%rsp), %r8         # 8-byte Reload
	movq	7760(%rsp), %r9         # 8-byte Reload
	movq	7984(%rsp), %r10        # 8-byte Reload
	movq	%r10, (%rsp)
	callq	trace_logger_log_int
	movb	7675(%rsp), %al         # 1-byte Reload
	testb	$1, %al
	movq	7760(%rsp), %rcx        # 8-byte Reload
	movq	%rcx, 7664(%rsp)        # 8-byte Spill
	jne	.LBB0_10
	jmp	.LBB0_11
.LBB0_10:                               #   in Loop: Header=BB0_1 Depth=1
	movabsq	$12345, %rax            # imm = 0x3039
	movabsq	$64, %rcx
	movabsq	$1, %rdx
	leaq	.L.str699, %r8
	movabsq	$0, %rsi
	leaq	.L.str700, %rdi
	leaq	.L.str697, %r9
	leaq	.L.str698, %r10
	movabsq	$24601, %r11            # imm = 0x6019
	movabsq	$32768, %rbx            # imm = 0x8000
	leaq	.L.str695, %r14
	leaq	.L.str696, %r15
	movabsq	$5, %r12
	leaq	.L.str693, %r13
	leaq	.L.str694, %rbp
	movq	%rax, 7656(%rsp)        # 8-byte Spill
	leaq	.L.str691, %rax
	movq	%rax, 7648(%rsp)        # 8-byte Spill
	leaq	.L.str692, %rax
	movq	%rax, 7640(%rsp)        # 8-byte Spill
	movabsq	$4, %rax
	movq	%rax, 7632(%rsp)        # 8-byte Spill
	leaq	.L.str689, %rax
	movq	%rax, 7624(%rsp)        # 8-byte Spill
	leaq	.L.str690, %rax
	movq	%rax, 7616(%rsp)        # 8-byte Spill
	leaq	.L.str687, %rax
	movq	%rax, 7608(%rsp)        # 8-byte Spill
	leaq	.L.str688, %rax
	movq	%rax, 7600(%rsp)        # 8-byte Spill
	movabsq	$3, %rax
	movq	%rax, 7592(%rsp)        # 8-byte Spill
	leaq	.L.str685, %rax
	movq	%rax, 7584(%rsp)        # 8-byte Spill
	leaq	.L.str686, %rax
	movq	%rax, 7576(%rsp)        # 8-byte Spill
	leaq	.L.str683, %rax
	movq	%rax, 7568(%rsp)        # 8-byte Spill
	leaq	.L.str684, %rax
	movq	%rax, 7560(%rsp)        # 8-byte Spill
	movabsq	$2, %rax
	movq	%rax, 7552(%rsp)        # 8-byte Spill
	leaq	.L.str681, %rax
	movq	%rax, 7544(%rsp)        # 8-byte Spill
	leaq	.L.str682, %rax
	movq	%rax, 7536(%rsp)        # 8-byte Spill
	leaq	orig, %rax
	movq	%rax, 7528(%rsp)        # 8-byte Spill
	leaq	.L.str679, %rax
	movq	%rax, 7520(%rsp)        # 8-byte Spill
	leaq	.L.str680, %rax
	movq	%rax, 7512(%rsp)        # 8-byte Spill
	leaq	.L.str677, %rax
	movq	%rax, 7504(%rsp)        # 8-byte Spill
	leaq	.L.str678, %rax
	movq	%rax, 7496(%rsp)        # 8-byte Spill
	movabsq	$8, %rax
	movq	%rax, 7488(%rsp)        # 8-byte Spill
	leaq	dmaLoad, %rax
	movq	%rax, 7480(%rsp)        # 8-byte Spill
	leaq	.L.str675, %rax
	movq	%rax, 7472(%rsp)        # 8-byte Spill
	leaq	.L.str676, %rax
	movq	%rax, 7464(%rsp)        # 8-byte Spill
	movabsq	$40, %rax
	movq	%rax, 7456(%rsp)        # 8-byte Spill
	leaq	.L.str672, %rax
	movq	%rax, 7448(%rsp)        # 8-byte Spill
	leaq	.L.str673, %rax
	movq	%rax, 7440(%rsp)        # 8-byte Spill
	leaq	.L.str674, %rax
	movq	%rax, 7432(%rsp)        # 8-byte Spill
	movabsq	$99, %rax
	movq	%rsi, 7424(%rsp)        # 8-byte Spill
	movl	$1, %esi
	movq	%rax, 7416(%rsp)        # 8-byte Spill
	movabsq	$19134, %rax            # imm = 0x4ABE
	movq	%rax, 7408(%rsp)        # 8-byte Spill
	leaq	.L.str670, %rax
	movq	%rax, 7400(%rsp)        # 8-byte Spill
	leaq	.L.str671, %rax
	movq	%rax, 7392(%rsp)        # 8-byte Spill
	leaq	.L.str668, %rax
	movq	%rax, 7384(%rsp)        # 8-byte Spill
	leaq	.L.str669, %rax
	movq	%rax, 7376(%rsp)        # 8-byte Spill
	leaq	.L.str665, %rax
	movq	%rax, 7368(%rsp)        # 8-byte Spill
	leaq	.L.str666, %rax
	movq	%rax, 7360(%rsp)        # 8-byte Spill
	leaq	.L.str667, %rax
	movq	%rax, 7352(%rsp)        # 8-byte Spill
	movabsq	$44, %rax
	movq	%rax, 7344(%rsp)        # 8-byte Spill
	leaq	.L.str663, %rax
	movq	%rax, 7336(%rsp)        # 8-byte Spill
	leaq	.L.str664, %rax
	movq	%rax, 7328(%rsp)        # 8-byte Spill
	leaq	.L.str661, %rax
	movq	%rax, 7320(%rsp)        # 8-byte Spill
	leaq	.L.str662, %rax
	movq	%rax, 7312(%rsp)        # 8-byte Spill
	leaq	.L.str659, %rax
	movq	%rax, 7304(%rsp)        # 8-byte Spill
	leaq	.L.str660, %rax
	movq	%rax, 7296(%rsp)        # 8-byte Spill
	leaq	.L.str656, %rax
	movq	%rax, 7288(%rsp)        # 8-byte Spill
	leaq	.L.str657, %rax
	movq	%rax, 7280(%rsp)        # 8-byte Spill
	leaq	.L.str658, %rax
	movq	%rax, 7272(%rsp)        # 8-byte Spill
	movabsq	$29, %rax
	movq	%rax, 7264(%rsp)        # 8-byte Spill
	leaq	.L.str654, %rax
	movq	%rax, 7256(%rsp)        # 8-byte Spill
	leaq	.L.str655, %rax
	movq	%rax, 7248(%rsp)        # 8-byte Spill
	leaq	.L.str652, %rax
	movq	%rax, 7240(%rsp)        # 8-byte Spill
	leaq	.L.str653, %rax
	movq	%rax, 7232(%rsp)        # 8-byte Spill
	leaq	.L.str650, %rax
	movq	%rax, 7224(%rsp)        # 8-byte Spill
	leaq	.L.str651, %rax
	movq	%rax, 7216(%rsp)        # 8-byte Spill
	leaq	.L.str647, %rax
	movq	%rax, 7208(%rsp)        # 8-byte Spill
	leaq	.L.str648, %rax
	movq	%rax, 7200(%rsp)        # 8-byte Spill
	leaq	.L.str649, %rax
	movq	%rax, 7192(%rsp)        # 8-byte Spill
	leaq	.L.str645, %rax
	movq	%rax, 7184(%rsp)        # 8-byte Spill
	leaq	.L.str646, %rax
	movq	%rax, 7176(%rsp)        # 8-byte Spill
	leaq	.L.str643, %rax
	movq	%rax, 7168(%rsp)        # 8-byte Spill
	leaq	.L.str644, %rax
	movq	%rax, 7160(%rsp)        # 8-byte Spill
	movabsq	$131144, %rax           # imm = 0x20048
	movq	%rax, 7152(%rsp)        # 8-byte Spill
	leaq	.L.str641, %rax
	movq	%rax, 7144(%rsp)        # 8-byte Spill
	leaq	.L.str642, %rax
	movq	%rax, 7136(%rsp)        # 8-byte Spill
	leaq	.L.str638, %rax
	movq	%rax, 7128(%rsp)        # 8-byte Spill
	leaq	.L.str639, %rax
	movq	%rax, 7120(%rsp)        # 8-byte Spill
	leaq	.L.str640, %rax
	movq	%rax, 7112(%rsp)        # 8-byte Spill
	leaq	.L.str636, %rax
	movq	%rax, 7104(%rsp)        # 8-byte Spill
	leaq	.L.str637, %rax
	movq	%rax, 7096(%rsp)        # 8-byte Spill
	leaq	.L.str634, %rax
	movq	%rax, 7088(%rsp)        # 8-byte Spill
	leaq	.L.str635, %rax
	movq	%rax, 7080(%rsp)        # 8-byte Spill
	movabsq	$65572, %rax            # imm = 0x10024
	movq	%rax, 7072(%rsp)        # 8-byte Spill
	leaq	.L.str632, %rax
	movq	%rax, 7064(%rsp)        # 8-byte Spill
	leaq	.L.str633, %rax
	movq	%rax, 7056(%rsp)        # 8-byte Spill
	leaq	.L.str629, %rax
	movq	%rax, 7048(%rsp)        # 8-byte Spill
	leaq	.L.str630, %rax
	movq	%rax, 7040(%rsp)        # 8-byte Spill
	leaq	.L.str631, %rax
	movq	%rax, 7032(%rsp)        # 8-byte Spill
	movabsq	$12, %rax
	movq	%rax, 7024(%rsp)        # 8-byte Spill
	leaq	dmaFence, %rax
	movq	%rax, 7016(%rsp)        # 8-byte Spill
	leaq	.L.str627, %rax
	movq	%rax, 7008(%rsp)        # 8-byte Spill
	leaq	.L.str628, %rax
	movq	%rax, 7000(%rsp)        # 8-byte Spill
	movabsq	$39, %rax
	movq	%rax, 6992(%rsp)        # 8-byte Spill
	leaq	.L.str624, %rax
	movq	%rax, 6984(%rsp)        # 8-byte Spill
	leaq	.L.str625, %rax
	movq	%rax, 6976(%rsp)        # 8-byte Spill
	leaq	.L.str626, %rax
	movq	%rax, 6968(%rsp)        # 8-byte Spill
	movabsq	$97, %rax
	.loc	1 39 0                  # stencil.c:39:0
.Ltmp44:
	movq	%rax, 6960(%rsp)        # 8-byte Spill
	movq	6992(%rsp), %rax        # 8-byte Reload
	movq	%rdi, 6952(%rsp)        # 8-byte Spill
	movq	%rax, %rdi
	movq	6984(%rsp), %rax        # 8-byte Reload
	movl	%esi, 6948(%rsp)        # 4-byte Spill
	movq	%rax, %rsi
	movq	6976(%rsp), %rax        # 8-byte Reload
	movq	%rdx, 6936(%rsp)        # 8-byte Spill
	movq	%rax, %rdx
	movq	6968(%rsp), %rax        # 8-byte Reload
	movq	%rcx, 6928(%rsp)        # 8-byte Spill
	movq	%rax, %rcx
	movq	6960(%rsp), %rax        # 8-byte Reload
	movq	%r8, 6920(%rsp)         # 8-byte Spill
	movq	%rax, %r8
	movl	6948(%rsp), %eax        # 4-byte Reload
	movq	%r9, 6912(%rsp)         # 8-byte Spill
	movl	%eax, %r9d
	movl	$1, (%rsp)
	movq	%r15, 6904(%rsp)        # 8-byte Spill
	movq	%r12, 6896(%rsp)        # 8-byte Spill
	movq	%r14, 6888(%rsp)        # 8-byte Spill
	movq	%r13, 6880(%rsp)        # 8-byte Spill
	movq	%rbp, 6872(%rsp)        # 8-byte Spill
	movq	%rbx, 6864(%rsp)        # 8-byte Spill
	movq	%r10, 6856(%rsp)        # 8-byte Spill
	movq	%r11, 6848(%rsp)        # 8-byte Spill
	callq	trace_logger_log0
	movq	6936(%rsp), %rdi        # 8-byte Reload
	movq	6928(%rsp), %rsi        # 8-byte Reload
	movq	7016(%rsp), %rdx        # 8-byte Reload
	movq	6936(%rsp), %rcx        # 8-byte Reload
	movq	7008(%rsp), %r8         # 8-byte Reload
	movq	7424(%rsp), %r9         # 8-byte Reload
	movq	7000(%rsp), %r10        # 8-byte Reload
	movq	%r10, (%rsp)
	callq	trace_logger_log_int
	xorl	%eax, %eax
                                        # kill: AL<def> AL<kill> EAX<kill>
	callq	dmaFence
	.loc	1 40 0                  # stencil.c:40:0
	movq	7456(%rsp), %rdi        # 8-byte Reload
	movq	7048(%rsp), %rsi        # 8-byte Reload
	movq	7040(%rsp), %rdx        # 8-byte Reload
	movq	7032(%rsp), %rcx        # 8-byte Reload
	movq	7024(%rsp), %r8         # 8-byte Reload
	movl	6948(%rsp), %r9d        # 4-byte Reload
	movl	$1, (%rsp)
	callq	trace_logger_log0
	movq	7552(%rsp), %rdi        # 8-byte Reload
	movq	6928(%rsp), %rsi        # 8-byte Reload
	movq	7072(%rsp), %rdx        # 8-byte Reload
	movq	7424(%rsp), %rcx        # 8-byte Reload
	movq	7064(%rsp), %r8         # 8-byte Reload
	movq	7424(%rsp), %r9         # 8-byte Reload
	movq	7056(%rsp), %r10        # 8-byte Reload
	movq	%r10, (%rsp)
	callq	trace_logger_log_int
	movq	6936(%rsp), %rdi        # 8-byte Reload
	movq	6928(%rsp), %rsi        # 8-byte Reload
	movq	12216(%rsp), %rdx       # 8-byte Reload
	movq	6936(%rsp), %rcx        # 8-byte Reload
	movq	7088(%rsp), %r8         # 8-byte Reload
	movq	7424(%rsp), %r9         # 8-byte Reload
	movq	7080(%rsp), %r10        # 8-byte Reload
	movq	%r10, (%rsp)
	callq	trace_logger_log_int
	movq	12216(%rsp), %rcx       # 8-byte Reload
	imulq	$65572, %rcx, %rdx      # imm = 0x10024
	movq	7408(%rsp), %rdi        # 8-byte Reload
	movq	6928(%rsp), %rsi        # 8-byte Reload
	movq	%rdx, 6840(%rsp)        # 8-byte Spill
	movq	6936(%rsp), %rcx        # 8-byte Reload
	movq	7104(%rsp), %r8         # 8-byte Reload
	movq	7424(%rsp), %r9         # 8-byte Reload
	movq	7096(%rsp), %r10        # 8-byte Reload
	movq	%r10, (%rsp)
	callq	trace_logger_log_int
	movq	7456(%rsp), %rdi        # 8-byte Reload
	movq	7128(%rsp), %rsi        # 8-byte Reload
	movq	7120(%rsp), %rdx        # 8-byte Reload
	movq	7112(%rsp), %rcx        # 8-byte Reload
	movq	7488(%rsp), %r8         # 8-byte Reload
	movl	6948(%rsp), %r9d        # 4-byte Reload
	movl	$1, (%rsp)
	callq	trace_logger_log0
	movq	7552(%rsp), %rdi        # 8-byte Reload
	movq	6928(%rsp), %rsi        # 8-byte Reload
	movq	7152(%rsp), %rdx        # 8-byte Reload
	movq	7424(%rsp), %rcx        # 8-byte Reload
	movq	7144(%rsp), %r8         # 8-byte Reload
	movq	7424(%rsp), %r9         # 8-byte Reload
	movq	7136(%rsp), %r10        # 8-byte Reload
	movq	%r10, (%rsp)
	callq	trace_logger_log_int
	movq	6936(%rsp), %rdi        # 8-byte Reload
	movq	6928(%rsp), %rsi        # 8-byte Reload
	movq	6840(%rsp), %rdx        # 8-byte Reload
	movq	6936(%rsp), %rcx        # 8-byte Reload
	movq	7168(%rsp), %r8         # 8-byte Reload
	movq	7424(%rsp), %r9         # 8-byte Reload
	movq	7160(%rsp), %r10        # 8-byte Reload
	movq	%r10, (%rsp)
	callq	trace_logger_log_int
	movq	6840(%rsp), %rcx        # 8-byte Reload
	addq	$131144, %rcx           # imm = 0x20048
	movq	7408(%rsp), %rdi        # 8-byte Reload
	movq	6928(%rsp), %rsi        # 8-byte Reload
	movq	%rcx, %rdx
	movq	6936(%rsp), %r8         # 8-byte Reload
	movq	%rcx, 6832(%rsp)        # 8-byte Spill
	movq	%r8, %rcx
	movq	7184(%rsp), %r8         # 8-byte Reload
	movq	7424(%rsp), %r9         # 8-byte Reload
	movq	7176(%rsp), %r10        # 8-byte Reload
	movq	%r10, (%rsp)
	callq	trace_logger_log_int
	movq	7456(%rsp), %rdi        # 8-byte Reload
	movq	7208(%rsp), %rsi        # 8-byte Reload
	movq	7200(%rsp), %rdx        # 8-byte Reload
	movq	7192(%rsp), %rcx        # 8-byte Reload
	movq	7488(%rsp), %r8         # 8-byte Reload
	movl	6948(%rsp), %r9d        # 4-byte Reload
	movl	$1, (%rsp)
	callq	trace_logger_log0
	movq	7552(%rsp), %rdi        # 8-byte Reload
	movq	6928(%rsp), %rsi        # 8-byte Reload
	movq	7592(%rsp), %rdx        # 8-byte Reload
	movq	7424(%rsp), %rcx        # 8-byte Reload
	movq	7224(%rsp), %r8         # 8-byte Reload
	movq	7424(%rsp), %r9         # 8-byte Reload
	movq	7216(%rsp), %r10        # 8-byte Reload
	movq	%r10, (%rsp)
	callq	trace_logger_log_int
	movq	6936(%rsp), %rdi        # 8-byte Reload
	movq	6928(%rsp), %rsi        # 8-byte Reload
	movq	12216(%rsp), %rdx       # 8-byte Reload
	movq	6936(%rsp), %rcx        # 8-byte Reload
	movq	7240(%rsp), %r8         # 8-byte Reload
	movq	7424(%rsp), %r9         # 8-byte Reload
	movq	7232(%rsp), %r10        # 8-byte Reload
	movq	%r10, (%rsp)
	callq	trace_logger_log_int
	movq	12216(%rsp), %rcx       # 8-byte Reload
	addq	$3, %rcx
	movq	7408(%rsp), %rdi        # 8-byte Reload
	movq	6928(%rsp), %rsi        # 8-byte Reload
	movq	%rcx, %rdx
	movq	6936(%rsp), %r8         # 8-byte Reload
	movq	%rcx, 6824(%rsp)        # 8-byte Spill
	movq	%r8, %rcx
	movq	7256(%rsp), %r8         # 8-byte Reload
	movq	7424(%rsp), %r9         # 8-byte Reload
	movq	7248(%rsp), %r10        # 8-byte Reload
	movq	%r10, (%rsp)
	callq	trace_logger_log_int
	movq	7456(%rsp), %rdi        # 8-byte Reload
	movq	7288(%rsp), %rsi        # 8-byte Reload
	movq	7280(%rsp), %rdx        # 8-byte Reload
	movq	7272(%rsp), %rcx        # 8-byte Reload
	movq	7264(%rsp), %r8         # 8-byte Reload
	movl	6948(%rsp), %r9d        # 4-byte Reload
	movl	$1, (%rsp)
	callq	trace_logger_log0
	movq	7552(%rsp), %rdi        # 8-byte Reload
	movq	6928(%rsp), %rsi        # 8-byte Reload
	movq	6824(%rsp), %rdx        # 8-byte Reload
	movq	6936(%rsp), %rcx        # 8-byte Reload
	movq	7304(%rsp), %r8         # 8-byte Reload
	movq	7424(%rsp), %r9         # 8-byte Reload
	movq	7296(%rsp), %r10        # 8-byte Reload
	movq	%r10, (%rsp)
	callq	trace_logger_log_int
	movq	6936(%rsp), %rdi        # 8-byte Reload
	movq	6928(%rsp), %rsi        # 8-byte Reload
	movq	14624(%rsp), %rdx       # 8-byte Reload
	movq	6936(%rsp), %rcx        # 8-byte Reload
	movq	7320(%rsp), %r8         # 8-byte Reload
	movq	7424(%rsp), %r9         # 8-byte Reload
	movq	7312(%rsp), %r10        # 8-byte Reload
	movq	%r10, (%rsp)
	callq	trace_logger_log_int
	movq	6824(%rsp), %rcx        # 8-byte Reload
	shlq	$2, %rcx
	movq	14624(%rsp), %rdx       # 8-byte Reload
	addq	%rcx, %rdx
	movq	7408(%rsp), %rdi        # 8-byte Reload
	movq	6928(%rsp), %rsi        # 8-byte Reload
	movq	%rdx, 6816(%rsp)        # 8-byte Spill
	movq	6936(%rsp), %rcx        # 8-byte Reload
	movq	7336(%rsp), %r8         # 8-byte Reload
	movq	7424(%rsp), %r9         # 8-byte Reload
	movq	7328(%rsp), %r10        # 8-byte Reload
	movq	%r10, (%rsp)
	callq	trace_logger_log_int
	movq	7456(%rsp), %rdi        # 8-byte Reload
	movq	7368(%rsp), %rsi        # 8-byte Reload
	movq	7360(%rsp), %rdx        # 8-byte Reload
	movq	7352(%rsp), %rcx        # 8-byte Reload
	movq	7344(%rsp), %r8         # 8-byte Reload
	movl	6948(%rsp), %r9d        # 4-byte Reload
	movl	$1, (%rsp)
	callq	trace_logger_log0
	movq	6936(%rsp), %rdi        # 8-byte Reload
	movq	6928(%rsp), %rsi        # 8-byte Reload
	movq	6816(%rsp), %rdx        # 8-byte Reload
	movq	6936(%rsp), %rcx        # 8-byte Reload
	movq	7384(%rsp), %r8         # 8-byte Reload
	movq	7424(%rsp), %r9         # 8-byte Reload
	movq	7376(%rsp), %r10        # 8-byte Reload
	movq	%r10, (%rsp)
	callq	trace_logger_log_int
	movq	6816(%rsp), %rcx        # 8-byte Reload
	movq	7408(%rsp), %rdi        # 8-byte Reload
	movq	6928(%rsp), %rsi        # 8-byte Reload
	movq	%rcx, %rdx
	movq	6936(%rsp), %r8         # 8-byte Reload
	movq	%rcx, 6808(%rsp)        # 8-byte Spill
	movq	%r8, %rcx
	movq	7400(%rsp), %r8         # 8-byte Reload
	movq	7424(%rsp), %r9         # 8-byte Reload
	movq	7392(%rsp), %r10        # 8-byte Reload
	movq	%r10, (%rsp)
	callq	trace_logger_log_int
	movq	7456(%rsp), %rdi        # 8-byte Reload
	movq	7448(%rsp), %rsi        # 8-byte Reload
	movq	7440(%rsp), %rdx        # 8-byte Reload
	movq	7432(%rsp), %rcx        # 8-byte Reload
	movq	7416(%rsp), %r8         # 8-byte Reload
	movl	6948(%rsp), %r9d        # 4-byte Reload
	movl	$1, (%rsp)
	callq	trace_logger_log0
	movq	7488(%rsp), %rdi        # 8-byte Reload
	movq	6928(%rsp), %rsi        # 8-byte Reload
	movq	7480(%rsp), %rdx        # 8-byte Reload
	movq	6936(%rsp), %rcx        # 8-byte Reload
	movq	7472(%rsp), %r8         # 8-byte Reload
	movq	7424(%rsp), %r9         # 8-byte Reload
	movq	7464(%rsp), %r10        # 8-byte Reload
	movq	%r10, (%rsp)
	callq	trace_logger_log_int
	movq	6936(%rsp), %rdi        # 8-byte Reload
	movq	6928(%rsp), %rsi        # 8-byte Reload
	movq	7528(%rsp), %rdx        # 8-byte Reload
	movq	7424(%rsp), %rcx        # 8-byte Reload
	movq	7504(%rsp), %r8         # 8-byte Reload
	movq	7424(%rsp), %r9         # 8-byte Reload
	movq	7496(%rsp), %r10        # 8-byte Reload
	movq	%r10, (%rsp)
	callq	trace_logger_log_int
	movq	6848(%rsp), %rdi        # 8-byte Reload
	movq	6928(%rsp), %rsi        # 8-byte Reload
	movq	7528(%rsp), %rdx        # 8-byte Reload
	movq	6936(%rsp), %rcx        # 8-byte Reload
	movq	7520(%rsp), %r8         # 8-byte Reload
	movq	7424(%rsp), %r9         # 8-byte Reload
	movq	7512(%rsp), %r10        # 8-byte Reload
	movq	%r10, (%rsp)
	callq	trace_logger_log_int
	movq	7552(%rsp), %rdi        # 8-byte Reload
	movq	6928(%rsp), %rsi        # 8-byte Reload
	movq	14160(%rsp), %rdx       # 8-byte Reload
	movq	6936(%rsp), %rcx        # 8-byte Reload
	movq	7544(%rsp), %r8         # 8-byte Reload
	movq	7424(%rsp), %r9         # 8-byte Reload
	movq	7536(%rsp), %r10        # 8-byte Reload
	movq	%r10, (%rsp)
	callq	trace_logger_log_int
	movq	6848(%rsp), %rdi        # 8-byte Reload
	movq	6928(%rsp), %rsi        # 8-byte Reload
	movq	14160(%rsp), %rdx       # 8-byte Reload
	movq	6936(%rsp), %rcx        # 8-byte Reload
	movq	7568(%rsp), %r8         # 8-byte Reload
	movq	7424(%rsp), %r9         # 8-byte Reload
	movq	7560(%rsp), %r10        # 8-byte Reload
	movq	%r10, (%rsp)
	callq	trace_logger_log_int
	movq	7592(%rsp), %rdi        # 8-byte Reload
	movq	6928(%rsp), %rsi        # 8-byte Reload
	movq	7424(%rsp), %rdx        # 8-byte Reload
	movq	7424(%rsp), %rcx        # 8-byte Reload
	movq	7584(%rsp), %r8         # 8-byte Reload
	movq	7424(%rsp), %r9         # 8-byte Reload
	movq	7576(%rsp), %r10        # 8-byte Reload
	movq	%r10, (%rsp)
	callq	trace_logger_log_int
	movq	6848(%rsp), %rdi        # 8-byte Reload
	movq	6928(%rsp), %rsi        # 8-byte Reload
	movq	7424(%rsp), %rdx        # 8-byte Reload
	movq	6936(%rsp), %rcx        # 8-byte Reload
	movq	7608(%rsp), %r8         # 8-byte Reload
	movq	7424(%rsp), %r9         # 8-byte Reload
	movq	7600(%rsp), %r10        # 8-byte Reload
	movq	%r10, (%rsp)
	callq	trace_logger_log_int
	movq	7632(%rsp), %rdi        # 8-byte Reload
	movq	6928(%rsp), %rsi        # 8-byte Reload
	movq	6832(%rsp), %rdx        # 8-byte Reload
	movq	6936(%rsp), %rcx        # 8-byte Reload
	movq	7624(%rsp), %r8         # 8-byte Reload
	movq	7424(%rsp), %r9         # 8-byte Reload
	movq	7616(%rsp), %r10        # 8-byte Reload
	movq	%r10, (%rsp)
	callq	trace_logger_log_int
	movq	6848(%rsp), %rdi        # 8-byte Reload
	movq	6928(%rsp), %rsi        # 8-byte Reload
	movq	6832(%rsp), %rdx        # 8-byte Reload
	movq	6936(%rsp), %rcx        # 8-byte Reload
	movq	7648(%rsp), %r8         # 8-byte Reload
	movq	7424(%rsp), %r9         # 8-byte Reload
	movq	7640(%rsp), %r10        # 8-byte Reload
	movq	%r10, (%rsp)
	callq	trace_logger_log_int
	movq	6896(%rsp), %rdi        # 8-byte Reload
	movq	6928(%rsp), %rsi        # 8-byte Reload
	movq	6864(%rsp), %rdx        # 8-byte Reload
	movq	7424(%rsp), %rcx        # 8-byte Reload
	movq	6880(%rsp), %r8         # 8-byte Reload
	movq	7424(%rsp), %r9         # 8-byte Reload
	movq	6872(%rsp), %r10        # 8-byte Reload
	movq	%r10, (%rsp)
	callq	trace_logger_log_int
	movq	6848(%rsp), %rdi        # 8-byte Reload
	movq	6928(%rsp), %rsi        # 8-byte Reload
	movq	6864(%rsp), %rdx        # 8-byte Reload
	movq	6936(%rsp), %rcx        # 8-byte Reload
	movq	6888(%rsp), %r8         # 8-byte Reload
	movq	7424(%rsp), %r9         # 8-byte Reload
	movq	6904(%rsp), %r10        # 8-byte Reload
	movq	%r10, (%rsp)
	callq	trace_logger_log_int
	movq	7656(%rsp), %rdi        # 8-byte Reload
	movq	6928(%rsp), %rsi        # 8-byte Reload
	movq	6808(%rsp), %rdx        # 8-byte Reload
	movq	6936(%rsp), %rcx        # 8-byte Reload
	movq	6912(%rsp), %r8         # 8-byte Reload
	movq	7424(%rsp), %r9         # 8-byte Reload
	movq	6856(%rsp), %r10        # 8-byte Reload
	movq	%r10, (%rsp)
	callq	trace_logger_log_int
	movq	7656(%rsp), %rdi        # 8-byte Reload
	movq	6928(%rsp), %rsi        # 8-byte Reload
	movq	14128(%rsp), %rdx       # 8-byte Reload
	movq	6936(%rsp), %rcx        # 8-byte Reload
	movq	6920(%rsp), %r8         # 8-byte Reload
	movq	7424(%rsp), %r9         # 8-byte Reload
	movq	6952(%rsp), %r10        # 8-byte Reload
	movq	%r10, (%rsp)
	callq	trace_logger_log_int
	movq	%rsp, %rcx
	movq	14128(%rsp), %rdx       # 8-byte Reload
	movq	%rdx, (%rcx)
	movl	$orig, %eax
	movl	%eax, %edi
	xorl	%eax, %eax
	movl	%eax, %edx
	movl	$32768, %eax            # imm = 0x8000
	movl	%eax, %r8d
	movq	14160(%rsp), %rsi       # 8-byte Reload
	movq	6832(%rsp), %rcx        # 8-byte Reload
	movq	6808(%rsp), %r9         # 8-byte Reload
	callq	dmaLoad
	movabsq	$12345, %rcx            # imm = 0x3039
	movabsq	$64, %rdx
	movabsq	$0, %rsi
	movabsq	$1, %rdi
	leaq	.L.str730, %r8
	leaq	.L.str731, %r9
	leaq	.L.str728, %r10
	leaq	.L.str729, %r11
	movabsq	$24601, %rbx            # imm = 0x6019
	movabsq	$36, %r14
	leaq	.L.str726, %r15
	leaq	.L.str727, %r12
	movabsq	$5, %r13
	leaq	.L.str724, %rbp
	movq	%rax, 6800(%rsp)        # 8-byte Spill
	leaq	.L.str725, %rax
	movq	%rax, 6792(%rsp)        # 8-byte Spill
	leaq	.L.str722, %rax
	movq	%rax, 6784(%rsp)        # 8-byte Spill
	leaq	.L.str723, %rax
	movq	%rax, 6776(%rsp)        # 8-byte Spill
	movabsq	$4, %rax
	movq	%rax, 6768(%rsp)        # 8-byte Spill
	leaq	.L.str720, %rax
	movq	%rax, 6760(%rsp)        # 8-byte Spill
	leaq	.L.str721, %rax
	movq	%rax, 6752(%rsp)        # 8-byte Spill
	leaq	.L.str718, %rax
	movq	%rax, 6744(%rsp)        # 8-byte Spill
	leaq	.L.str719, %rax
	movq	%rax, 6736(%rsp)        # 8-byte Spill
	movabsq	$3, %rax
	movq	%rax, 6728(%rsp)        # 8-byte Spill
	leaq	.L.str716, %rax
	movq	%rax, 6720(%rsp)        # 8-byte Spill
	leaq	.L.str717, %rax
	movq	%rax, 6712(%rsp)        # 8-byte Spill
	leaq	.L.str714, %rax
	movq	%rax, 6704(%rsp)        # 8-byte Spill
	leaq	.L.str715, %rax
	movq	%rax, 6696(%rsp)        # 8-byte Spill
	movabsq	$2, %rax
	movq	%rax, 6688(%rsp)        # 8-byte Spill
	leaq	.L.str712, %rax
	movq	%rax, 6680(%rsp)        # 8-byte Spill
	leaq	.L.str713, %rax
	movq	%rax, 6672(%rsp)        # 8-byte Spill
	leaq	filter, %rax
	movq	%rax, 6664(%rsp)        # 8-byte Spill
	leaq	.L.str710, %rax
	movq	%rax, 6656(%rsp)        # 8-byte Spill
	leaq	.L.str711, %rax
	movq	%rax, 6648(%rsp)        # 8-byte Spill
	leaq	.L.str708, %rax
	movq	%rax, 6640(%rsp)        # 8-byte Spill
	leaq	.L.str709, %rax
	movq	%rax, 6632(%rsp)        # 8-byte Spill
	movabsq	$8, %rax
	movq	%rax, 6624(%rsp)        # 8-byte Spill
	leaq	dmaLoad, %rax
	movq	%rax, 6616(%rsp)        # 8-byte Spill
	leaq	.L.str706, %rax
	movq	%rax, 6608(%rsp)        # 8-byte Spill
	leaq	.L.str707, %rax
	movq	%rax, 6600(%rsp)        # 8-byte Spill
	movabsq	$42, %rax
	movq	%rax, 6592(%rsp)        # 8-byte Spill
	leaq	.L.str703, %rax
	movq	%rax, 6584(%rsp)        # 8-byte Spill
	leaq	.L.str704, %rax
	movq	%rax, 6576(%rsp)        # 8-byte Spill
	leaq	.L.str705, %rax
	movq	%rax, 6568(%rsp)        # 8-byte Spill
	movabsq	$99, %rax
	movq	%rsi, 6560(%rsp)        # 8-byte Spill
	movl	$1, %esi
	movq	%rax, 6552(%rsp)        # 8-byte Spill
	movabsq	$19134, %rax            # imm = 0x4ABE
	movq	%rax, 6544(%rsp)        # 8-byte Spill
	leaq	.L.str701, %rax
	movq	%rax, 6536(%rsp)        # 8-byte Spill
	leaq	.L.str702, %rax
	.loc	1 42 0                  # stencil.c:42:0
	movq	%rax, 6528(%rsp)        # 8-byte Spill
	movq	6544(%rsp), %rax        # 8-byte Reload
	movq	%rdi, 6520(%rsp)        # 8-byte Spill
	movq	%rax, %rdi
	movl	%esi, 6516(%rsp)        # 4-byte Spill
	movq	%rdx, %rsi
	movq	6800(%rsp), %rax        # 8-byte Reload
	movq	%rdx, 6504(%rsp)        # 8-byte Spill
	movq	%rax, %rdx
	movq	6520(%rsp), %rax        # 8-byte Reload
	movq	%rcx, 6496(%rsp)        # 8-byte Spill
	movq	%rax, %rcx
	movq	6536(%rsp), %rax        # 8-byte Reload
	movq	%r8, 6488(%rsp)         # 8-byte Spill
	movq	%rax, %r8
	movq	6560(%rsp), %rax        # 8-byte Reload
	movq	%r9, 6480(%rsp)         # 8-byte Spill
	movq	%rax, %r9
	movq	6528(%rsp), %rax        # 8-byte Reload
	movq	%rax, (%rsp)
	movq	%r15, 6472(%rsp)        # 8-byte Spill
	movq	%r12, 6464(%rsp)        # 8-byte Spill
	movq	%r13, 6456(%rsp)        # 8-byte Spill
	movq	%rbp, 6448(%rsp)        # 8-byte Spill
	movq	%r14, 6440(%rsp)        # 8-byte Spill
	movq	%rbx, 6432(%rsp)        # 8-byte Spill
	movq	%r10, 6424(%rsp)        # 8-byte Spill
	movq	%r11, 6416(%rsp)        # 8-byte Spill
	callq	trace_logger_log_int
	movq	6592(%rsp), %rdi        # 8-byte Reload
	movq	6584(%rsp), %rsi        # 8-byte Reload
	movq	6576(%rsp), %rdx        # 8-byte Reload
	movq	6568(%rsp), %rcx        # 8-byte Reload
	movq	6552(%rsp), %r8         # 8-byte Reload
	movl	6516(%rsp), %r9d        # 4-byte Reload
	movl	$1, (%rsp)
	callq	trace_logger_log0
	movq	6624(%rsp), %rdi        # 8-byte Reload
	movq	6504(%rsp), %rsi        # 8-byte Reload
	movq	6616(%rsp), %rdx        # 8-byte Reload
	movq	6520(%rsp), %rcx        # 8-byte Reload
	movq	6608(%rsp), %r8         # 8-byte Reload
	movq	6560(%rsp), %r9         # 8-byte Reload
	movq	6600(%rsp), %rax        # 8-byte Reload
	movq	%rax, (%rsp)
	callq	trace_logger_log_int
	movq	6520(%rsp), %rdi        # 8-byte Reload
	movq	6504(%rsp), %rsi        # 8-byte Reload
	movq	6664(%rsp), %rdx        # 8-byte Reload
	movq	6560(%rsp), %rcx        # 8-byte Reload
	movq	6640(%rsp), %r8         # 8-byte Reload
	movq	6560(%rsp), %r9         # 8-byte Reload
	movq	6632(%rsp), %rax        # 8-byte Reload
	movq	%rax, (%rsp)
	callq	trace_logger_log_int
	movq	6432(%rsp), %rdi        # 8-byte Reload
	movq	6504(%rsp), %rsi        # 8-byte Reload
	movq	6664(%rsp), %rdx        # 8-byte Reload
	movq	6520(%rsp), %rcx        # 8-byte Reload
	movq	6656(%rsp), %r8         # 8-byte Reload
	movq	6560(%rsp), %r9         # 8-byte Reload
	movq	6648(%rsp), %rax        # 8-byte Reload
	movq	%rax, (%rsp)
	callq	trace_logger_log_int
	movq	6688(%rsp), %rdi        # 8-byte Reload
	movq	6504(%rsp), %rsi        # 8-byte Reload
	movq	13536(%rsp), %rdx       # 8-byte Reload
	movq	6520(%rsp), %rcx        # 8-byte Reload
	movq	6680(%rsp), %r8         # 8-byte Reload
	movq	6560(%rsp), %r9         # 8-byte Reload
	movq	6672(%rsp), %rax        # 8-byte Reload
	movq	%rax, (%rsp)
	callq	trace_logger_log_int
	movq	6432(%rsp), %rdi        # 8-byte Reload
	movq	6504(%rsp), %rsi        # 8-byte Reload
	movq	13536(%rsp), %rdx       # 8-byte Reload
	movq	6520(%rsp), %rcx        # 8-byte Reload
	movq	6704(%rsp), %r8         # 8-byte Reload
	movq	6560(%rsp), %r9         # 8-byte Reload
	movq	6696(%rsp), %rax        # 8-byte Reload
	movq	%rax, (%rsp)
	callq	trace_logger_log_int
	movq	6728(%rsp), %rdi        # 8-byte Reload
	movq	6504(%rsp), %rsi        # 8-byte Reload
	movq	6560(%rsp), %rdx        # 8-byte Reload
	movq	6560(%rsp), %rcx        # 8-byte Reload
	movq	6720(%rsp), %r8         # 8-byte Reload
	movq	6560(%rsp), %r9         # 8-byte Reload
	movq	6712(%rsp), %rax        # 8-byte Reload
	movq	%rax, (%rsp)
	callq	trace_logger_log_int
	movq	6432(%rsp), %rdi        # 8-byte Reload
	movq	6504(%rsp), %rsi        # 8-byte Reload
	movq	6560(%rsp), %rdx        # 8-byte Reload
	movq	6520(%rsp), %rcx        # 8-byte Reload
	movq	6744(%rsp), %r8         # 8-byte Reload
	movq	6560(%rsp), %r9         # 8-byte Reload
	movq	6736(%rsp), %rax        # 8-byte Reload
	movq	%rax, (%rsp)
	callq	trace_logger_log_int
	movq	6768(%rsp), %rdi        # 8-byte Reload
	movq	6504(%rsp), %rsi        # 8-byte Reload
	movq	6832(%rsp), %rdx        # 8-byte Reload
	movq	6520(%rsp), %rcx        # 8-byte Reload
	movq	6760(%rsp), %r8         # 8-byte Reload
	movq	6560(%rsp), %r9         # 8-byte Reload
	movq	6752(%rsp), %rax        # 8-byte Reload
	movq	%rax, (%rsp)
	callq	trace_logger_log_int
	movq	6432(%rsp), %rdi        # 8-byte Reload
	movq	6504(%rsp), %rsi        # 8-byte Reload
	movq	6832(%rsp), %rdx        # 8-byte Reload
	movq	6520(%rsp), %rcx        # 8-byte Reload
	movq	6784(%rsp), %r8         # 8-byte Reload
	movq	6560(%rsp), %r9         # 8-byte Reload
	movq	6776(%rsp), %rax        # 8-byte Reload
	movq	%rax, (%rsp)
	callq	trace_logger_log_int
	movq	6456(%rsp), %rdi        # 8-byte Reload
	movq	6504(%rsp), %rsi        # 8-byte Reload
	movq	6440(%rsp), %rdx        # 8-byte Reload
	movq	6560(%rsp), %rcx        # 8-byte Reload
	movq	6448(%rsp), %r8         # 8-byte Reload
	movq	6560(%rsp), %r9         # 8-byte Reload
	movq	6792(%rsp), %rax        # 8-byte Reload
	movq	%rax, (%rsp)
	callq	trace_logger_log_int
	movq	6432(%rsp), %rdi        # 8-byte Reload
	movq	6504(%rsp), %rsi        # 8-byte Reload
	movq	6440(%rsp), %rdx        # 8-byte Reload
	movq	6520(%rsp), %rcx        # 8-byte Reload
	movq	6472(%rsp), %r8         # 8-byte Reload
	movq	6560(%rsp), %r9         # 8-byte Reload
	movq	6464(%rsp), %rax        # 8-byte Reload
	movq	%rax, (%rsp)
	callq	trace_logger_log_int
	movq	6496(%rsp), %rdi        # 8-byte Reload
	movq	6504(%rsp), %rsi        # 8-byte Reload
	movq	6808(%rsp), %rdx        # 8-byte Reload
	movq	6520(%rsp), %rcx        # 8-byte Reload
	movq	6424(%rsp), %r8         # 8-byte Reload
	movq	6560(%rsp), %r9         # 8-byte Reload
	movq	6416(%rsp), %rax        # 8-byte Reload
	movq	%rax, (%rsp)
	callq	trace_logger_log_int
	movq	6496(%rsp), %rdi        # 8-byte Reload
	movq	6504(%rsp), %rsi        # 8-byte Reload
	movq	6560(%rsp), %rdx        # 8-byte Reload
	movq	6520(%rsp), %rcx        # 8-byte Reload
	movq	6488(%rsp), %r8         # 8-byte Reload
	movq	6560(%rsp), %r9         # 8-byte Reload
	movq	6480(%rsp), %rax        # 8-byte Reload
	movq	%rax, (%rsp)
	callq	trace_logger_log_int
	movq	%rsp, %rax
	movq	$0, (%rax)
	movl	$filter, %esi
	movl	%esi, %edi
	xorl	%esi, %esi
	movl	%esi, %edx
	movl	$36, %esi
	movl	%esi, %r8d
	movq	13536(%rsp), %rsi       # 8-byte Reload
	movq	6832(%rsp), %rcx        # 8-byte Reload
	movq	6808(%rsp), %r9         # 8-byte Reload
	callq	dmaLoad
	movabsq	$0, %rcx
	movabsq	$1, %rdx
	leaq	.L.str737, %r8
	leaq	.L.str738, %rsi
	movabsq	$44, %rdi
	leaq	.L.str734, %r9
	leaq	.L.str735, %r10
	leaq	.L.str736, %r11
	movabsq	$2, %rbx
	movl	$1, %ebp
	movabsq	$19134, %r14            # imm = 0x4ABE
	movabsq	$64, %r15
	leaq	.L.str732, %r12
	leaq	.L.str733, %r13
	.loc	1 44 0                  # stencil.c:44:0
	movq	%rdi, 6408(%rsp)        # 8-byte Spill
	movq	%r14, %rdi
	movq	%rsi, 6400(%rsp)        # 8-byte Spill
	movq	%r15, %rsi
	movq	%rdx, 6392(%rsp)        # 8-byte Spill
	movq	%rax, %rdx
	movq	6392(%rsp), %rax        # 8-byte Reload
	movq	%rcx, 6384(%rsp)        # 8-byte Spill
	movq	%rax, %rcx
	movq	%r8, 6376(%rsp)         # 8-byte Spill
	movq	%r12, %r8
	movq	6384(%rsp), %r14        # 8-byte Reload
	movq	%r9, 6368(%rsp)         # 8-byte Spill
	movq	%r14, %r9
	movq	%r13, (%rsp)
	movl	%ebp, 6364(%rsp)        # 4-byte Spill
	movq	%rbx, 6352(%rsp)        # 8-byte Spill
	movq	%r10, 6344(%rsp)        # 8-byte Spill
	movq	%r11, 6336(%rsp)        # 8-byte Spill
	callq	trace_logger_log_int
	movq	6408(%rsp), %rdi        # 8-byte Reload
	movq	6368(%rsp), %rsi        # 8-byte Reload
	movq	6344(%rsp), %rdx        # 8-byte Reload
	movq	6336(%rsp), %rcx        # 8-byte Reload
	movq	6352(%rsp), %r8         # 8-byte Reload
	movl	6364(%rsp), %r9d        # 4-byte Reload
	movl	$1, (%rsp)
	callq	trace_logger_log0
	movq	6392(%rsp), %rdi        # 8-byte Reload
	movq	6384(%rsp), %rsi        # 8-byte Reload
	movq	6384(%rsp), %rdx        # 8-byte Reload
	movq	6392(%rsp), %rcx        # 8-byte Reload
	movq	6376(%rsp), %r8         # 8-byte Reload
	movq	6384(%rsp), %r9         # 8-byte Reload
	movq	6400(%rsp), %rax        # 8-byte Reload
	movq	%rax, (%rsp)
	callq	trace_logger_log_int
	movq	6384(%rsp), %rax        # 8-byte Reload
	movq	%rax, 7664(%rsp)        # 8-byte Spill
.Ltmp45:
.LBB0_11:                               # %.preheader22
                                        #   Parent Loop BB0_1 Depth=1
                                        # =>  This Loop Header: Depth=2
                                        #       Child Loop BB0_12 Depth 3
                                        #         Child Loop BB0_13 Depth 4
                                        #           Child Loop BB0_14 Depth 5
	movq	7664(%rsp), %rax        # 8-byte Reload
	movabsq	$0, %rcx
	movabsq	$1, %rdx
	leaq	.L.str771, %r8
	leaq	.L.str772, %rsi
	movabsq	$48, %rdi
	leaq	.L.str768, %r9
	leaq	.L.str769, %r10
	leaq	.L.str770, %r11
	movabsq	$2, %rbx
	movl	$1, %ebp
	movabsq	$19134, %r14            # imm = 0x4ABE
	movabsq	$64, %r15
	leaq	.L.str766, %r12
	leaq	.L.str767, %r13
	movq	%rax, 6328(%rsp)        # 8-byte Spill
	leaq	.L.str764, %rax
	movq	%rax, 6320(%rsp)        # 8-byte Spill
	leaq	.L.str765, %rax
	movq	%rax, 6312(%rsp)        # 8-byte Spill
	movabsq	$8192, %rax             # imm = 0x2000
	movq	%rax, 6304(%rsp)        # 8-byte Spill
	leaq	.L.str762, %rax
	movq	%rax, 6296(%rsp)        # 8-byte Spill
	leaq	.L.str763, %rax
	movq	%rax, 6288(%rsp)        # 8-byte Spill
	movabsq	$56, %rax
	movq	%rax, 6280(%rsp)        # 8-byte Spill
	leaq	.L.str759, %rax
	movq	%rax, 6272(%rsp)        # 8-byte Spill
	leaq	.L.str760, %rax
	movq	%rax, 6264(%rsp)        # 8-byte Spill
	leaq	.L.str761, %rax
	movq	%rax, 6256(%rsp)        # 8-byte Spill
	movabsq	$8, %rax
	movq	%rax, 6248(%rsp)        # 8-byte Spill
	leaq	.L.str757, %rax
	movq	%rax, 6240(%rsp)        # 8-byte Spill
	leaq	.L.str758, %rax
	movq	%rax, 6232(%rsp)        # 8-byte Spill
	leaq	.L.str755, %rax
	movq	%rax, 6224(%rsp)        # 8-byte Spill
	leaq	.L.str756, %rax
	movq	%rax, 6216(%rsp)        # 8-byte Spill
	movabsq	$6, %rax
	movq	%rax, 6208(%rsp)        # 8-byte Spill
	leaq	.L.str753, %rax
	movq	%rax, 6200(%rsp)        # 8-byte Spill
	leaq	.L.str754, %rax
	movq	%rax, 6192(%rsp)        # 8-byte Spill
	leaq	.L.str750, %rax
	movq	%rax, 6184(%rsp)        # 8-byte Spill
	leaq	.L.str751, %rax
	movq	%rax, 6176(%rsp)        # 8-byte Spill
	leaq	.L.str752, %rax
	movq	%rax, 6168(%rsp)        # 8-byte Spill
	movabsq	$20, %rax
	movq	%rax, 6160(%rsp)        # 8-byte Spill
	leaq	.L.str748, %rax
	movq	%rax, 6152(%rsp)        # 8-byte Spill
	leaq	.L.str749, %rax
	movq	%rax, 6144(%rsp)        # 8-byte Spill
	leaq	.L.str746, %rax
	movq	%rax, 6136(%rsp)        # 8-byte Spill
	leaq	.L.str747, %rax
	movq	%rax, 6128(%rsp)        # 8-byte Spill
	leaq	.L.str744, %rax
	movq	%rax, 6120(%rsp)        # 8-byte Spill
	leaq	.L.str745, %rax
	movq	%rax, 6112(%rsp)        # 8-byte Spill
	movabsq	$3, %rax
	movq	%rax, 6104(%rsp)        # 8-byte Spill
	leaq	.L.str742, %rax
	movq	%rax, 6096(%rsp)        # 8-byte Spill
	leaq	.L.str743, %rax
	movq	%rax, 6088(%rsp)        # 8-byte Spill
	movabsq	$-1, %rax
	movq	%rax, 6080(%rsp)        # 8-byte Spill
	leaq	.L.str739, %rax
	movq	%rax, 6072(%rsp)        # 8-byte Spill
	leaq	.L.str740, %rax
	movq	%rax, 6064(%rsp)        # 8-byte Spill
	leaq	.L.str741, %rax
	.loc	1 56 0                  # stencil.c:56:0
.Ltmp46:
	movq	%rax, 6056(%rsp)        # 8-byte Spill
	movq	6080(%rsp), %rax        # 8-byte Reload
	movq	%rdi, 6048(%rsp)        # 8-byte Spill
	movq	%rax, %rdi
	movq	6072(%rsp), %rax        # 8-byte Reload
	movq	%rsi, 6040(%rsp)        # 8-byte Spill
	movq	%rax, %rsi
	movq	6064(%rsp), %rax        # 8-byte Reload
	movq	%rdx, 6032(%rsp)        # 8-byte Spill
	movq	%rax, %rdx
	movq	6056(%rsp), %rax        # 8-byte Reload
	movq	%rcx, 6024(%rsp)        # 8-byte Spill
	movq	%rax, %rcx
	movq	6048(%rsp), %rax        # 8-byte Reload
	movq	%r8, 6016(%rsp)         # 8-byte Spill
	movq	%rax, %r8
	movq	%r9, 6008(%rsp)         # 8-byte Spill
	movl	%ebp, %r9d
	movl	$1, (%rsp)
	movq	%r14, 6000(%rsp)        # 8-byte Spill
	movq	%r15, 5992(%rsp)        # 8-byte Spill
	movl	%ebp, 5988(%rsp)        # 4-byte Spill
	movq	%r12, 5976(%rsp)        # 8-byte Spill
	movq	%r13, 5968(%rsp)        # 8-byte Spill
	movq	%rbx, 5960(%rsp)        # 8-byte Spill
	movq	%r10, 5952(%rsp)        # 8-byte Spill
	movq	%r11, 5944(%rsp)        # 8-byte Spill
	callq	trace_logger_log0
	movq	6104(%rsp), %rdi        # 8-byte Reload
	movq	5992(%rsp), %rsi        # 8-byte Reload
	movq	6024(%rsp), %rdx        # 8-byte Reload
	movq	6024(%rsp), %rcx        # 8-byte Reload
	movq	6096(%rsp), %r8         # 8-byte Reload
	movq	6032(%rsp), %r9         # 8-byte Reload
	movq	6088(%rsp), %rax        # 8-byte Reload
	movq	%rax, (%rsp)
	callq	trace_logger_log_int
	movq	5960(%rsp), %rdi        # 8-byte Reload
	movq	5992(%rsp), %rsi        # 8-byte Reload
	movq	6024(%rsp), %rdx        # 8-byte Reload
	movq	6024(%rsp), %rcx        # 8-byte Reload
	movq	6120(%rsp), %r8         # 8-byte Reload
	movq	6032(%rsp), %r9         # 8-byte Reload
	movq	6112(%rsp), %rax        # 8-byte Reload
	movq	%rax, (%rsp)
	callq	trace_logger_log_int
	movq	6032(%rsp), %rdi        # 8-byte Reload
	movq	5992(%rsp), %rsi        # 8-byte Reload
	movq	6024(%rsp), %rdx        # 8-byte Reload
	movq	6032(%rsp), %rcx        # 8-byte Reload
	movq	6136(%rsp), %r8         # 8-byte Reload
	movq	6032(%rsp), %r9         # 8-byte Reload
	movq	6128(%rsp), %rax        # 8-byte Reload
	movq	%rax, (%rsp)
	callq	trace_logger_log_int
	movq	6000(%rsp), %rdi        # 8-byte Reload
	movq	5992(%rsp), %rsi        # 8-byte Reload
	movq	6328(%rsp), %rdx        # 8-byte Reload
	movq	6032(%rsp), %rcx        # 8-byte Reload
	movq	6152(%rsp), %r8         # 8-byte Reload
	movq	6024(%rsp), %r9         # 8-byte Reload
	movq	6144(%rsp), %rax        # 8-byte Reload
	movq	%rax, (%rsp)
	callq	trace_logger_log_int
	movq	6280(%rsp), %rdi        # 8-byte Reload
	movq	6184(%rsp), %rsi        # 8-byte Reload
	movq	6176(%rsp), %rdx        # 8-byte Reload
	movq	6168(%rsp), %rcx        # 8-byte Reload
	movq	6160(%rsp), %r8         # 8-byte Reload
	movl	5988(%rsp), %r9d        # 4-byte Reload
	movl	$1, (%rsp)
	callq	trace_logger_log0
	movq	5960(%rsp), %rdi        # 8-byte Reload
	movq	5992(%rsp), %rsi        # 8-byte Reload
	movq	6208(%rsp), %rdx        # 8-byte Reload
	movq	6024(%rsp), %rcx        # 8-byte Reload
	movq	6200(%rsp), %r8         # 8-byte Reload
	movq	6024(%rsp), %r9         # 8-byte Reload
	movq	6192(%rsp), %rax        # 8-byte Reload
	movq	%rax, (%rsp)
	callq	trace_logger_log_int
	movq	6032(%rsp), %rdi        # 8-byte Reload
	movq	5992(%rsp), %rsi        # 8-byte Reload
	movq	6328(%rsp), %rdx        # 8-byte Reload
	movq	6032(%rsp), %rcx        # 8-byte Reload
	movq	6224(%rsp), %r8         # 8-byte Reload
	movq	6024(%rsp), %r9         # 8-byte Reload
	movq	6216(%rsp), %rax        # 8-byte Reload
	movq	%rax, (%rsp)
	callq	trace_logger_log_int
	movq	6328(%rsp), %rax        # 8-byte Reload
	shlq	$6, %rax
	movq	6000(%rsp), %rdi        # 8-byte Reload
	movq	5992(%rsp), %rsi        # 8-byte Reload
	movq	%rax, %rdx
	movq	6032(%rsp), %rcx        # 8-byte Reload
	movq	6240(%rsp), %r8         # 8-byte Reload
	movq	6024(%rsp), %r9         # 8-byte Reload
	movq	6232(%rsp), %r10        # 8-byte Reload
	movq	%r10, (%rsp)
	movq	%rax, 5936(%rsp)        # 8-byte Spill
	callq	trace_logger_log_int
	movq	6280(%rsp), %rdi        # 8-byte Reload
	movq	6272(%rsp), %rsi        # 8-byte Reload
	movq	6264(%rsp), %rdx        # 8-byte Reload
	movq	6256(%rsp), %rcx        # 8-byte Reload
	movq	6248(%rsp), %r8         # 8-byte Reload
	movl	5988(%rsp), %r9d        # 4-byte Reload
	movl	$1, (%rsp)
	callq	trace_logger_log0
	movq	5960(%rsp), %rdi        # 8-byte Reload
	movq	5992(%rsp), %rsi        # 8-byte Reload
	movq	6304(%rsp), %rdx        # 8-byte Reload
	movq	6024(%rsp), %rcx        # 8-byte Reload
	movq	6296(%rsp), %r8         # 8-byte Reload
	movq	6024(%rsp), %r9         # 8-byte Reload
	movq	6288(%rsp), %rax        # 8-byte Reload
	movq	%rax, (%rsp)
	callq	trace_logger_log_int
	movq	6032(%rsp), %rdi        # 8-byte Reload
	movq	5992(%rsp), %rsi        # 8-byte Reload
	movq	5936(%rsp), %rdx        # 8-byte Reload
	movq	6032(%rsp), %rcx        # 8-byte Reload
	movq	6320(%rsp), %r8         # 8-byte Reload
	movq	6024(%rsp), %r9         # 8-byte Reload
	movq	6312(%rsp), %rax        # 8-byte Reload
	movq	%rax, (%rsp)
	callq	trace_logger_log_int
	movq	5936(%rsp), %rax        # 8-byte Reload
	addq	$8192, %rax             # imm = 0x2000
.Ltmp47:
	.loc	1 48 0                  # stencil.c:48:0
	movq	6000(%rsp), %rdi        # 8-byte Reload
	movq	5992(%rsp), %rsi        # 8-byte Reload
	movq	%rax, %rdx
	movq	6032(%rsp), %rcx        # 8-byte Reload
	movq	5976(%rsp), %r8         # 8-byte Reload
	movq	6024(%rsp), %r9         # 8-byte Reload
	movq	5968(%rsp), %r10        # 8-byte Reload
	movq	%r10, (%rsp)
	movq	%rax, 5928(%rsp)        # 8-byte Spill
	callq	trace_logger_log_int
	movq	6048(%rsp), %rdi        # 8-byte Reload
	movq	6008(%rsp), %rsi        # 8-byte Reload
	movq	5952(%rsp), %rdx        # 8-byte Reload
	movq	5944(%rsp), %rcx        # 8-byte Reload
	movq	5960(%rsp), %r8         # 8-byte Reload
	movl	5988(%rsp), %r9d        # 4-byte Reload
	movl	$1, (%rsp)
	callq	trace_logger_log0
	movq	6032(%rsp), %rdi        # 8-byte Reload
	movq	6024(%rsp), %rsi        # 8-byte Reload
	movq	6024(%rsp), %rdx        # 8-byte Reload
	movq	6032(%rsp), %rcx        # 8-byte Reload
	movq	6016(%rsp), %r8         # 8-byte Reload
	movq	6024(%rsp), %r9         # 8-byte Reload
	movq	6040(%rsp), %rax        # 8-byte Reload
	movq	%rax, (%rsp)
	callq	trace_logger_log_int
	movq	6024(%rsp), %rax        # 8-byte Reload
	movq	%rax, 5920(%rsp)        # 8-byte Spill
.LBB0_12:                               # %.preheader19
                                        #   Parent Loop BB0_1 Depth=1
                                        #     Parent Loop BB0_11 Depth=2
                                        # =>    This Loop Header: Depth=3
                                        #         Child Loop BB0_13 Depth 4
                                        #           Child Loop BB0_14 Depth 5
	movq	5920(%rsp), %rax        # 8-byte Reload
	movabsq	$0, %rcx
	movl	$0, %edx
	movabsq	$1, %rsi
	leaq	.L.str794, %r8
	leaq	.L.str795, %rdi
	movabsq	$50, %r9
	leaq	.L.str791, %r10
	leaq	.L.str792, %r11
	leaq	.L.str793, %rbx
	movabsq	$2, %r14
	movl	$1, %ebp
	movabsq	$19134, %r15            # imm = 0x4ABE
	movabsq	$64, %r12
	leaq	.L.str789, %r13
	movq	%rax, 5912(%rsp)        # 8-byte Spill
	leaq	.L.str790, %rax
	movq	%rax, 5904(%rsp)        # 8-byte Spill
	leaq	.L.str787, %rax
	movq	%rax, 5896(%rsp)        # 8-byte Spill
	leaq	.L.str788, %rax
	movq	%rax, 5888(%rsp)        # 8-byte Spill
	movabsq	$8192, %rax             # imm = 0x2000
	movq	%rax, 5880(%rsp)        # 8-byte Spill
	leaq	.L.str785, %rax
	movq	%rax, 5872(%rsp)        # 8-byte Spill
	leaq	.L.str786, %rax
	movq	%rax, 5864(%rsp)        # 8-byte Spill
	movabsq	$52, %rax
	movq	%rax, 5856(%rsp)        # 8-byte Spill
	leaq	.L.str782, %rax
	movq	%rax, 5848(%rsp)        # 8-byte Spill
	leaq	.L.str783, %rax
	movq	%rax, 5840(%rsp)        # 8-byte Spill
	leaq	.L.str784, %rax
	movq	%rax, 5832(%rsp)        # 8-byte Spill
	movabsq	$8, %rax
	movq	%rax, 5824(%rsp)        # 8-byte Spill
	leaq	.L.str780, %rax
	movq	%rax, 5816(%rsp)        # 8-byte Spill
	leaq	.L.str781, %rax
	movq	%rax, 5808(%rsp)        # 8-byte Spill
	leaq	.L.str778, %rax
	movq	%rax, 5800(%rsp)        # 8-byte Spill
	leaq	.L.str779, %rax
	movq	%rax, 5792(%rsp)        # 8-byte Spill
	leaq	.L.str776, %rax
	movq	%rax, 5784(%rsp)        # 8-byte Spill
	leaq	.L.str777, %rax
	movq	%rax, 5776(%rsp)        # 8-byte Spill
	movabsq	$-1, %rax
	movq	%rax, 5768(%rsp)        # 8-byte Spill
	leaq	.L.str773, %rax
	movq	%rax, 5760(%rsp)        # 8-byte Spill
	leaq	.L.str774, %rax
	movq	%rax, 5752(%rsp)        # 8-byte Spill
	leaq	.L.str775, %rax
	movq	%rax, 5744(%rsp)        # 8-byte Spill
	movabsq	$48, %rax
	.loc	1 52 0                  # stencil.c:52:0
.Ltmp48:
	movq	%rax, 5736(%rsp)        # 8-byte Spill
	movq	5768(%rsp), %rax        # 8-byte Reload
	movq	%rdi, 5728(%rsp)        # 8-byte Spill
	movq	%rax, %rdi
	movq	5760(%rsp), %rax        # 8-byte Reload
	movq	%rsi, 5720(%rsp)        # 8-byte Spill
	movq	%rax, %rsi
	movq	5752(%rsp), %rax        # 8-byte Reload
	movl	%edx, 5716(%rsp)        # 4-byte Spill
	movq	%rax, %rdx
	movq	5744(%rsp), %rax        # 8-byte Reload
	movq	%rcx, 5704(%rsp)        # 8-byte Spill
	movq	%rax, %rcx
	movq	5736(%rsp), %rax        # 8-byte Reload
	movq	%r8, 5696(%rsp)         # 8-byte Spill
	movq	%rax, %r8
	movq	%r9, 5688(%rsp)         # 8-byte Spill
	movl	%ebp, %r9d
	movl	$1, (%rsp)
	movl	%ebp, 5684(%rsp)        # 4-byte Spill
	movq	%r15, 5672(%rsp)        # 8-byte Spill
	movq	%r12, 5664(%rsp)        # 8-byte Spill
	movq	%r14, 5656(%rsp)        # 8-byte Spill
	movq	%r13, 5648(%rsp)        # 8-byte Spill
	movq	%rbx, 5640(%rsp)        # 8-byte Spill
	movq	%r10, 5632(%rsp)        # 8-byte Spill
	movq	%r11, 5624(%rsp)        # 8-byte Spill
	callq	trace_logger_log0
	movq	5656(%rsp), %rdi        # 8-byte Reload
	movq	5664(%rsp), %rsi        # 8-byte Reload
	movq	5704(%rsp), %rdx        # 8-byte Reload
	movq	5720(%rsp), %rcx        # 8-byte Reload
	movq	5784(%rsp), %r8         # 8-byte Reload
	movq	5720(%rsp), %r9         # 8-byte Reload
	movq	5776(%rsp), %rax        # 8-byte Reload
	movq	%rax, (%rsp)
	callq	trace_logger_log_int
	movq	5720(%rsp), %rdi        # 8-byte Reload
	movq	5664(%rsp), %rsi        # 8-byte Reload
	movq	5704(%rsp), %rdx        # 8-byte Reload
	movq	5704(%rsp), %rcx        # 8-byte Reload
	movq	5800(%rsp), %r8         # 8-byte Reload
	movq	5720(%rsp), %r9         # 8-byte Reload
	movq	5792(%rsp), %rax        # 8-byte Reload
	movq	%rax, (%rsp)
	callq	trace_logger_log_int
	movq	5672(%rsp), %rdi        # 8-byte Reload
	movq	5664(%rsp), %rsi        # 8-byte Reload
	movq	5912(%rsp), %rdx        # 8-byte Reload
	movq	5720(%rsp), %rcx        # 8-byte Reload
	movq	5816(%rsp), %r8         # 8-byte Reload
	movq	5704(%rsp), %r9         # 8-byte Reload
	movq	5808(%rsp), %rax        # 8-byte Reload
	movq	%rax, (%rsp)
	callq	trace_logger_log_int
	movq	5856(%rsp), %rdi        # 8-byte Reload
	movq	5848(%rsp), %rsi        # 8-byte Reload
	movq	5840(%rsp), %rdx        # 8-byte Reload
	movq	5832(%rsp), %rcx        # 8-byte Reload
	movq	5824(%rsp), %r8         # 8-byte Reload
	movl	5684(%rsp), %r9d        # 4-byte Reload
	movl	$1, (%rsp)
	callq	trace_logger_log0
	movq	5656(%rsp), %rdi        # 8-byte Reload
	movq	5664(%rsp), %rsi        # 8-byte Reload
	movq	5880(%rsp), %rdx        # 8-byte Reload
	movq	5704(%rsp), %rcx        # 8-byte Reload
	movq	5872(%rsp), %r8         # 8-byte Reload
	movq	5704(%rsp), %r9         # 8-byte Reload
	movq	5864(%rsp), %rax        # 8-byte Reload
	movq	%rax, (%rsp)
	callq	trace_logger_log_int
	movq	5720(%rsp), %rdi        # 8-byte Reload
	movq	5664(%rsp), %rsi        # 8-byte Reload
	movq	5912(%rsp), %rdx        # 8-byte Reload
	movq	5720(%rsp), %rcx        # 8-byte Reload
	movq	5896(%rsp), %r8         # 8-byte Reload
	movq	5704(%rsp), %r9         # 8-byte Reload
	movq	5888(%rsp), %rax        # 8-byte Reload
	movq	%rax, (%rsp)
	callq	trace_logger_log_int
	movq	5912(%rsp), %rax        # 8-byte Reload
	addq	$8192, %rax             # imm = 0x2000
.Ltmp49:
	.loc	1 50 0                  # stencil.c:50:0
	movq	5672(%rsp), %rdi        # 8-byte Reload
	movq	5664(%rsp), %rsi        # 8-byte Reload
	movq	%rax, %rdx
	movq	5720(%rsp), %rcx        # 8-byte Reload
	movq	5648(%rsp), %r8         # 8-byte Reload
	movq	5704(%rsp), %r9         # 8-byte Reload
	movq	5904(%rsp), %r10        # 8-byte Reload
	movq	%r10, (%rsp)
	movq	%rax, 5616(%rsp)        # 8-byte Spill
	callq	trace_logger_log_int
	movq	5688(%rsp), %rdi        # 8-byte Reload
	movq	5632(%rsp), %rsi        # 8-byte Reload
	movq	5624(%rsp), %rdx        # 8-byte Reload
	movq	5640(%rsp), %rcx        # 8-byte Reload
	movq	5656(%rsp), %r8         # 8-byte Reload
	movl	5684(%rsp), %r9d        # 4-byte Reload
	movl	$1, (%rsp)
	callq	trace_logger_log0
	movq	5720(%rsp), %rdi        # 8-byte Reload
	movq	5704(%rsp), %rsi        # 8-byte Reload
	movq	5704(%rsp), %rdx        # 8-byte Reload
	movq	5720(%rsp), %rcx        # 8-byte Reload
	movq	5696(%rsp), %r8         # 8-byte Reload
	movq	5704(%rsp), %r9         # 8-byte Reload
	movq	5728(%rsp), %rax        # 8-byte Reload
	movq	%rax, (%rsp)
	callq	trace_logger_log_int
	movq	5704(%rsp), %rax        # 8-byte Reload
	movl	5716(%rsp), %ebp        # 4-byte Reload
	movq	%rax, 5608(%rsp)        # 8-byte Spill
	movl	%ebp, 5604(%rsp)        # 4-byte Spill
.LBB0_13:                               # %.preheader16
                                        #   Parent Loop BB0_1 Depth=1
                                        #     Parent Loop BB0_11 Depth=2
                                        #       Parent Loop BB0_12 Depth=3
                                        # =>      This Loop Header: Depth=4
                                        #           Child Loop BB0_14 Depth 5
	movl	5604(%rsp), %eax        # 4-byte Reload
	movq	5608(%rsp), %rcx        # 8-byte Reload
	movabsq	$0, %rdx
	movabsq	$1, %rsi
	leaq	.L.str862, %r8
	leaq	.L.str863, %rdi
	movabsq	$51, %r9
	leaq	.L.str859, %r10
	leaq	.L.str860, %r11
	leaq	.L.str861, %rbx
	movabsq	$2, %r14
	movl	$1, %ebp
	movabsq	$19134, %r15            # imm = 0x4ABE
	movabsq	$64, %r12
	leaq	.L.str857, %r13
	movq	%rcx, 5592(%rsp)        # 8-byte Spill
	leaq	.L.str858, %rcx
	movq	%rcx, 5584(%rsp)        # 8-byte Spill
	leaq	.L.str855, %rcx
	movq	%rcx, 5576(%rsp)        # 8-byte Spill
	leaq	.L.str856, %rcx
	movq	%rcx, 5568(%rsp)        # 8-byte Spill
	leaq	.L.str853, %rcx
	movq	%rcx, 5560(%rsp)        # 8-byte Spill
	leaq	.L.str854, %rcx
	movq	%rcx, 5552(%rsp)        # 8-byte Spill
	movabsq	$52, %rcx
	movq	%rcx, 5544(%rsp)        # 8-byte Spill
	leaq	.L.str850, %rcx
	movq	%rcx, 5536(%rsp)        # 8-byte Spill
	leaq	.L.str851, %rcx
	movq	%rcx, 5528(%rsp)        # 8-byte Spill
	leaq	.L.str852, %rcx
	movq	%rcx, 5520(%rsp)        # 8-byte Spill
	movabsq	$8, %rcx
	movq	%rcx, 5512(%rsp)        # 8-byte Spill
	leaq	.L.str848, %rcx
	movq	%rcx, 5504(%rsp)        # 8-byte Spill
	leaq	.L.str849, %rcx
	movq	%rcx, 5496(%rsp)        # 8-byte Spill
	leaq	.L.str846, %rcx
	movq	%rcx, 5488(%rsp)        # 8-byte Spill
	leaq	.L.str847, %rcx
	movq	%rcx, 5480(%rsp)        # 8-byte Spill
	movabsq	$6, %rcx
	movq	%rcx, 5472(%rsp)        # 8-byte Spill
	leaq	.L.str844, %rcx
	movq	%rcx, 5464(%rsp)        # 8-byte Spill
	leaq	.L.str845, %rcx
	movq	%rcx, 5456(%rsp)        # 8-byte Spill
	leaq	.L.str841, %rcx
	movq	%rcx, 5448(%rsp)        # 8-byte Spill
	leaq	.L.str842, %rcx
	movq	%rcx, 5440(%rsp)        # 8-byte Spill
	leaq	.L.str843, %rcx
	movq	%rcx, 5432(%rsp)        # 8-byte Spill
	movabsq	$20, %rcx
	movq	%rcx, 5424(%rsp)        # 8-byte Spill
	leaq	.L.str839, %rcx
	movq	%rcx, 5416(%rsp)        # 8-byte Spill
	leaq	.L.str840, %rcx
	movq	%rcx, 5408(%rsp)        # 8-byte Spill
	leaq	.L.str837, %rcx
	movq	%rcx, 5400(%rsp)        # 8-byte Spill
	leaq	.L.str838, %rcx
	movq	%rcx, 5392(%rsp)        # 8-byte Spill
	leaq	.L.str835, %rcx
	movq	%rcx, 5384(%rsp)        # 8-byte Spill
	leaq	.L.str836, %rcx
	movq	%rcx, 5376(%rsp)        # 8-byte Spill
	leaq	.L.str832, %rcx
	movq	%rcx, 5368(%rsp)        # 8-byte Spill
	leaq	.L.str833, %rcx
	movq	%rcx, 5360(%rsp)        # 8-byte Spill
	leaq	.L.str834, %rcx
	movq	%rcx, 5352(%rsp)        # 8-byte Spill
	leaq	.L.str830, %rcx
	movq	%rcx, 5344(%rsp)        # 8-byte Spill
	leaq	.L.str831, %rcx
	movq	%rcx, 5336(%rsp)        # 8-byte Spill
	leaq	.L.str828, %rcx
	movq	%rcx, 5328(%rsp)        # 8-byte Spill
	leaq	.L.str829, %rcx
	movq	%rcx, 5320(%rsp)        # 8-byte Spill
	movabsq	$9, %rcx
	movq	%rcx, 5312(%rsp)        # 8-byte Spill
	leaq	.L.str826, %rcx
	movq	%rcx, 5304(%rsp)        # 8-byte Spill
	leaq	.L.str827, %rcx
	movq	%rcx, 5296(%rsp)        # 8-byte Spill
	leaq	.L.str823, %rcx
	movq	%rcx, 5288(%rsp)        # 8-byte Spill
	leaq	.L.str824, %rcx
	movq	%rcx, 5280(%rsp)        # 8-byte Spill
	leaq	.L.str825, %rcx
	movq	%rcx, 5272(%rsp)        # 8-byte Spill
	leaq	.L.str821, %rcx
	movq	%rcx, 5264(%rsp)        # 8-byte Spill
	leaq	.L.str822, %rcx
	movq	%rcx, 5256(%rsp)        # 8-byte Spill
	leaq	.L.str819, %rcx
	movq	%rcx, 5248(%rsp)        # 8-byte Spill
	leaq	.L.str820, %rcx
	movq	%rcx, 5240(%rsp)        # 8-byte Spill
	movabsq	$3, %rcx
	movq	%rcx, 5232(%rsp)        # 8-byte Spill
	leaq	.L.str817, %rcx
	movq	%rcx, 5224(%rsp)        # 8-byte Spill
	leaq	.L.str818, %rcx
	movq	%rcx, 5216(%rsp)        # 8-byte Spill
	leaq	.L.str814, %rcx
	movq	%rcx, 5208(%rsp)        # 8-byte Spill
	leaq	.L.str815, %rcx
	movq	%rcx, 5200(%rsp)        # 8-byte Spill
	leaq	.L.str816, %rcx
	movq	%rcx, 5192(%rsp)        # 8-byte Spill
	movabsq	$12, %rcx
	movq	%rcx, 5184(%rsp)        # 8-byte Spill
	movabsq	$32, %rcx
	movq	%rcx, 5176(%rsp)        # 8-byte Spill
	leaq	.L.str812, %rcx
	movq	%rcx, 5168(%rsp)        # 8-byte Spill
	leaq	.L.str813, %rcx
	movq	%rcx, 5160(%rsp)        # 8-byte Spill
	leaq	.L.str810, %rcx
	movq	%rcx, 5152(%rsp)        # 8-byte Spill
	leaq	.L.str811, %rcx
	movq	%rcx, 5144(%rsp)        # 8-byte Spill
	leaq	.L.str808, %rcx
	movq	%rcx, 5136(%rsp)        # 8-byte Spill
	leaq	.L.str809, %rcx
	movq	%rcx, 5128(%rsp)        # 8-byte Spill
	movabsq	$-1, %rcx
	movq	%rcx, 5120(%rsp)        # 8-byte Spill
	leaq	.L.str805, %rcx
	movq	%rcx, 5112(%rsp)        # 8-byte Spill
	leaq	.L.str806, %rcx
	movq	%rcx, 5104(%rsp)        # 8-byte Spill
	leaq	.L.str807, %rcx
	movq	%rcx, 5096(%rsp)        # 8-byte Spill
	movabsq	$48, %rcx
	movq	%rcx, 5088(%rsp)        # 8-byte Spill
	leaq	.L.str803, %rcx
	movq	%rcx, 5080(%rsp)        # 8-byte Spill
	leaq	.L.str804, %rcx
	movq	%rcx, 5072(%rsp)        # 8-byte Spill
	leaq	.L.str801, %rcx
	movq	%rcx, 5064(%rsp)        # 8-byte Spill
	leaq	.L.str802, %rcx
	movq	%rcx, 5056(%rsp)        # 8-byte Spill
	leaq	.L.str799, %rcx
	movq	%rcx, 5048(%rsp)        # 8-byte Spill
	leaq	.L.str800, %rcx
	movq	%rcx, 5040(%rsp)        # 8-byte Spill
	leaq	.L.str796, %rcx
	movq	%rcx, 5032(%rsp)        # 8-byte Spill
	leaq	.L.str797, %rcx
	movq	%rcx, 5024(%rsp)        # 8-byte Spill
	leaq	.L.str798, %rcx
	.loc	1 52 0                  # stencil.c:52:0
.Ltmp50:
	movq	%rcx, 5016(%rsp)        # 8-byte Spill
	movq	5120(%rsp), %rcx        # 8-byte Reload
	movq	%rdi, 5008(%rsp)        # 8-byte Spill
	movq	%rcx, %rdi
	movq	5032(%rsp), %rcx        # 8-byte Reload
	movq	%rsi, 5000(%rsp)        # 8-byte Spill
	movq	%rcx, %rsi
	movq	5024(%rsp), %rcx        # 8-byte Reload
	movq	%rdx, 4992(%rsp)        # 8-byte Spill
	movq	%rcx, %rdx
	movq	5016(%rsp), %rcx        # 8-byte Reload
	movq	%r8, 4984(%rsp)         # 8-byte Spill
	movq	5088(%rsp), %r8         # 8-byte Reload
	movq	%r9, 4976(%rsp)         # 8-byte Spill
	movl	%ebp, %r9d
	movl	$1, (%rsp)
	movl	%eax, 4972(%rsp)        # 4-byte Spill
	movl	%ebp, 4968(%rsp)        # 4-byte Spill
	movq	%r15, 4960(%rsp)        # 8-byte Spill
	movq	%r12, 4952(%rsp)        # 8-byte Spill
	movq	%r14, 4944(%rsp)        # 8-byte Spill
	movq	%r13, 4936(%rsp)        # 8-byte Spill
	movq	%rbx, 4928(%rsp)        # 8-byte Spill
	movq	%r10, 4920(%rsp)        # 8-byte Spill
	movq	%r11, 4912(%rsp)        # 8-byte Spill
	callq	trace_logger_log0
	movq	4944(%rsp), %rdi        # 8-byte Reload
	movq	4952(%rsp), %rsi        # 8-byte Reload
	movq	4992(%rsp), %rdx        # 8-byte Reload
	movq	5000(%rsp), %rcx        # 8-byte Reload
	movq	5048(%rsp), %r8         # 8-byte Reload
	movq	5000(%rsp), %r9         # 8-byte Reload
	movq	5040(%rsp), %r10        # 8-byte Reload
	movq	%r10, (%rsp)
	callq	trace_logger_log_int
	movq	5000(%rsp), %rdi        # 8-byte Reload
	movq	4952(%rsp), %rsi        # 8-byte Reload
	movq	4992(%rsp), %rdx        # 8-byte Reload
	movq	4992(%rsp), %rcx        # 8-byte Reload
	movq	5064(%rsp), %r8         # 8-byte Reload
	movq	5000(%rsp), %r9         # 8-byte Reload
	movq	5056(%rsp), %r10        # 8-byte Reload
	movq	%r10, (%rsp)
	callq	trace_logger_log_int
	movq	4960(%rsp), %rdi        # 8-byte Reload
	movq	4952(%rsp), %rsi        # 8-byte Reload
	movq	5592(%rsp), %rdx        # 8-byte Reload
	movq	5000(%rsp), %rcx        # 8-byte Reload
	movq	5080(%rsp), %r8         # 8-byte Reload
	movq	4992(%rsp), %r9         # 8-byte Reload
	movq	5072(%rsp), %r10        # 8-byte Reload
	movq	%r10, (%rsp)
	callq	trace_logger_log_int
	movq	5120(%rsp), %rdi        # 8-byte Reload
	movq	5112(%rsp), %rsi        # 8-byte Reload
	movq	5104(%rsp), %rdx        # 8-byte Reload
	movq	5096(%rsp), %rcx        # 8-byte Reload
	movq	5088(%rsp), %r8         # 8-byte Reload
	movl	4968(%rsp), %r9d        # 4-byte Reload
	movl	$1, (%rsp)
	callq	trace_logger_log0
	movq	4944(%rsp), %rdi        # 8-byte Reload
	movq	5176(%rsp), %rsi        # 8-byte Reload
	movq	4992(%rsp), %rdx        # 8-byte Reload
	movq	5000(%rsp), %rcx        # 8-byte Reload
	movq	5136(%rsp), %r8         # 8-byte Reload
	movq	5000(%rsp), %r9         # 8-byte Reload
	movq	5128(%rsp), %r10        # 8-byte Reload
	movq	%r10, (%rsp)
	callq	trace_logger_log_int
	movq	5000(%rsp), %rdi        # 8-byte Reload
	movq	5176(%rsp), %rsi        # 8-byte Reload
	movq	4992(%rsp), %rdx        # 8-byte Reload
	movq	4992(%rsp), %rcx        # 8-byte Reload
	movq	5152(%rsp), %r8         # 8-byte Reload
	movq	5000(%rsp), %r9         # 8-byte Reload
	movq	5144(%rsp), %r10        # 8-byte Reload
	movq	%r10, (%rsp)
	callq	trace_logger_log_int
	movl	4972(%rsp), %eax        # 4-byte Reload
	movl	%eax, %ebp
	movl	%ebp, %edx
	movq	4960(%rsp), %rdi        # 8-byte Reload
	movq	5176(%rsp), %rsi        # 8-byte Reload
	movq	5000(%rsp), %rcx        # 8-byte Reload
	movq	5168(%rsp), %r8         # 8-byte Reload
	movq	4992(%rsp), %r9         # 8-byte Reload
	movq	5160(%rsp), %r10        # 8-byte Reload
	movq	%r10, (%rsp)
	callq	trace_logger_log_int
	movq	5544(%rsp), %rdi        # 8-byte Reload
	movq	5208(%rsp), %rsi        # 8-byte Reload
	movq	5200(%rsp), %rdx        # 8-byte Reload
	movq	5192(%rsp), %rcx        # 8-byte Reload
	movq	5184(%rsp), %r8         # 8-byte Reload
	movl	4968(%rsp), %r9d        # 4-byte Reload
	movl	$1, (%rsp)
	callq	trace_logger_log0
	movq	4944(%rsp), %rdi        # 8-byte Reload
	movq	4952(%rsp), %rsi        # 8-byte Reload
	movq	5232(%rsp), %rdx        # 8-byte Reload
	movq	4992(%rsp), %rcx        # 8-byte Reload
	movq	5224(%rsp), %r8         # 8-byte Reload
	movq	4992(%rsp), %r9         # 8-byte Reload
	movq	5216(%rsp), %r10        # 8-byte Reload
	movq	%r10, (%rsp)
	callq	trace_logger_log_int
	movq	5000(%rsp), %rdi        # 8-byte Reload
	movq	4952(%rsp), %rsi        # 8-byte Reload
	movq	5592(%rsp), %rdx        # 8-byte Reload
	movq	5000(%rsp), %rcx        # 8-byte Reload
	movq	5248(%rsp), %r8         # 8-byte Reload
	movq	4992(%rsp), %r9         # 8-byte Reload
	movq	5240(%rsp), %r10        # 8-byte Reload
	movq	%r10, (%rsp)
	callq	trace_logger_log_int
	movq	5592(%rsp), %rcx        # 8-byte Reload
	imulq	$3, %rcx, %rdx
	movq	4960(%rsp), %rdi        # 8-byte Reload
	movq	4952(%rsp), %rsi        # 8-byte Reload
	movq	%rdx, 4904(%rsp)        # 8-byte Spill
	movq	5000(%rsp), %rcx        # 8-byte Reload
	movq	5264(%rsp), %r8         # 8-byte Reload
	movq	4992(%rsp), %r9         # 8-byte Reload
	movq	5256(%rsp), %r10        # 8-byte Reload
	movq	%r10, (%rsp)
	callq	trace_logger_log_int
	movq	5544(%rsp), %rdi        # 8-byte Reload
	movq	5288(%rsp), %rsi        # 8-byte Reload
	movq	5280(%rsp), %rdx        # 8-byte Reload
	movq	5272(%rsp), %rcx        # 8-byte Reload
	movq	5512(%rsp), %r8         # 8-byte Reload
	movl	4968(%rsp), %r9d        # 4-byte Reload
	movl	$1, (%rsp)
	callq	trace_logger_log0
	movq	4944(%rsp), %rdi        # 8-byte Reload
	movq	4952(%rsp), %rsi        # 8-byte Reload
	movq	5312(%rsp), %rdx        # 8-byte Reload
	movq	4992(%rsp), %rcx        # 8-byte Reload
	movq	5304(%rsp), %r8         # 8-byte Reload
	movq	4992(%rsp), %r9         # 8-byte Reload
	movq	5296(%rsp), %r10        # 8-byte Reload
	movq	%r10, (%rsp)
	callq	trace_logger_log_int
	movq	5000(%rsp), %rdi        # 8-byte Reload
	movq	4952(%rsp), %rsi        # 8-byte Reload
	movq	4904(%rsp), %rdx        # 8-byte Reload
	movq	5000(%rsp), %rcx        # 8-byte Reload
	movq	5328(%rsp), %r8         # 8-byte Reload
	movq	4992(%rsp), %r9         # 8-byte Reload
	movq	5320(%rsp), %r10        # 8-byte Reload
	movq	%r10, (%rsp)
	callq	trace_logger_log_int
	movq	4904(%rsp), %rcx        # 8-byte Reload
	addq	$9, %rcx
	movq	4960(%rsp), %rdi        # 8-byte Reload
	movq	4952(%rsp), %rsi        # 8-byte Reload
	movq	%rcx, %rdx
	movq	5000(%rsp), %r8         # 8-byte Reload
	movq	%rcx, 4896(%rsp)        # 8-byte Spill
	movq	%r8, %rcx
	movq	5344(%rsp), %r8         # 8-byte Reload
	movq	4992(%rsp), %r9         # 8-byte Reload
	movq	5336(%rsp), %r10        # 8-byte Reload
	movq	%r10, (%rsp)
	callq	trace_logger_log_int
	movq	5544(%rsp), %rdi        # 8-byte Reload
	movq	5368(%rsp), %rsi        # 8-byte Reload
	movq	5360(%rsp), %rdx        # 8-byte Reload
	movq	5352(%rsp), %rcx        # 8-byte Reload
	movq	5512(%rsp), %r8         # 8-byte Reload
	movl	4968(%rsp), %r9d        # 4-byte Reload
	movl	$1, (%rsp)
	callq	trace_logger_log0
	movq	4944(%rsp), %rdi        # 8-byte Reload
	movq	4952(%rsp), %rsi        # 8-byte Reload
	movq	6328(%rsp), %rdx        # 8-byte Reload
	movq	5000(%rsp), %rcx        # 8-byte Reload
	movq	5384(%rsp), %r8         # 8-byte Reload
	movq	4992(%rsp), %r9         # 8-byte Reload
	movq	5376(%rsp), %r10        # 8-byte Reload
	movq	%r10, (%rsp)
	callq	trace_logger_log_int
	movq	5000(%rsp), %rdi        # 8-byte Reload
	movq	4952(%rsp), %rsi        # 8-byte Reload
	movq	5592(%rsp), %rdx        # 8-byte Reload
	movq	5000(%rsp), %rcx        # 8-byte Reload
	movq	5400(%rsp), %r8         # 8-byte Reload
	movq	4992(%rsp), %r9         # 8-byte Reload
	movq	5392(%rsp), %r10        # 8-byte Reload
	movq	%r10, (%rsp)
	callq	trace_logger_log_int
	movq	5592(%rsp), %rcx        # 8-byte Reload
	movq	6328(%rsp), %rdx        # 8-byte Reload
	addq	%rdx, %rcx
	movq	4960(%rsp), %rdi        # 8-byte Reload
	movq	4952(%rsp), %rsi        # 8-byte Reload
	movq	%rcx, %rdx
	movq	5000(%rsp), %r8         # 8-byte Reload
	movq	%rcx, 4888(%rsp)        # 8-byte Spill
	movq	%r8, %rcx
	movq	5416(%rsp), %r8         # 8-byte Reload
	movq	4992(%rsp), %r9         # 8-byte Reload
	movq	5408(%rsp), %r10        # 8-byte Reload
	movq	%r10, (%rsp)
	callq	trace_logger_log_int
	movq	5544(%rsp), %rdi        # 8-byte Reload
	movq	5448(%rsp), %rsi        # 8-byte Reload
	movq	5440(%rsp), %rdx        # 8-byte Reload
	movq	5432(%rsp), %rcx        # 8-byte Reload
	movq	5424(%rsp), %r8         # 8-byte Reload
	movl	4968(%rsp), %r9d        # 4-byte Reload
	movl	$1, (%rsp)
	callq	trace_logger_log0
	movq	4944(%rsp), %rdi        # 8-byte Reload
	movq	4952(%rsp), %rsi        # 8-byte Reload
	movq	5472(%rsp), %rdx        # 8-byte Reload
	movq	4992(%rsp), %rcx        # 8-byte Reload
	movq	5464(%rsp), %r8         # 8-byte Reload
	movq	4992(%rsp), %r9         # 8-byte Reload
	movq	5456(%rsp), %r10        # 8-byte Reload
	movq	%r10, (%rsp)
	callq	trace_logger_log_int
	movq	5000(%rsp), %rdi        # 8-byte Reload
	movq	4952(%rsp), %rsi        # 8-byte Reload
	movq	4888(%rsp), %rdx        # 8-byte Reload
	movq	5000(%rsp), %rcx        # 8-byte Reload
	movq	5488(%rsp), %r8         # 8-byte Reload
	movq	4992(%rsp), %r9         # 8-byte Reload
	movq	5480(%rsp), %r10        # 8-byte Reload
	movq	%r10, (%rsp)
	callq	trace_logger_log_int
	movq	4888(%rsp), %rcx        # 8-byte Reload
	shlq	$6, %rcx
	movq	4960(%rsp), %rdi        # 8-byte Reload
	movq	4952(%rsp), %rsi        # 8-byte Reload
	movq	%rcx, %rdx
	movq	5000(%rsp), %r8         # 8-byte Reload
	movq	%rcx, 4880(%rsp)        # 8-byte Spill
	movq	%r8, %rcx
	movq	5504(%rsp), %r8         # 8-byte Reload
	movq	4992(%rsp), %r9         # 8-byte Reload
	movq	5496(%rsp), %r10        # 8-byte Reload
	movq	%r10, (%rsp)
	callq	trace_logger_log_int
	movq	5544(%rsp), %rdi        # 8-byte Reload
	movq	5536(%rsp), %rsi        # 8-byte Reload
	movq	5528(%rsp), %rdx        # 8-byte Reload
	movq	5520(%rsp), %rcx        # 8-byte Reload
	movq	5512(%rsp), %r8         # 8-byte Reload
	movl	4968(%rsp), %r9d        # 4-byte Reload
	movl	$1, (%rsp)
	callq	trace_logger_log0
	movq	4944(%rsp), %rdi        # 8-byte Reload
	movq	4952(%rsp), %rsi        # 8-byte Reload
	movq	4880(%rsp), %rdx        # 8-byte Reload
	movq	5000(%rsp), %rcx        # 8-byte Reload
	movq	5560(%rsp), %r8         # 8-byte Reload
	movq	4992(%rsp), %r9         # 8-byte Reload
	movq	5552(%rsp), %r10        # 8-byte Reload
	movq	%r10, (%rsp)
	callq	trace_logger_log_int
	movq	5000(%rsp), %rdi        # 8-byte Reload
	movq	4952(%rsp), %rsi        # 8-byte Reload
	movq	5616(%rsp), %rdx        # 8-byte Reload
	movq	5000(%rsp), %rcx        # 8-byte Reload
	movq	5576(%rsp), %r8         # 8-byte Reload
	movq	4992(%rsp), %r9         # 8-byte Reload
	movq	5568(%rsp), %r10        # 8-byte Reload
	movq	%r10, (%rsp)
	callq	trace_logger_log_int
	movq	5616(%rsp), %rcx        # 8-byte Reload
	movq	4880(%rsp), %rdx        # 8-byte Reload
	addq	%rdx, %rcx
.Ltmp51:
	.loc	1 51 0                  # stencil.c:51:0
	movq	4960(%rsp), %rdi        # 8-byte Reload
	movq	4952(%rsp), %rsi        # 8-byte Reload
	movq	%rcx, %rdx
	movq	5000(%rsp), %r8         # 8-byte Reload
	movq	%rcx, 4872(%rsp)        # 8-byte Spill
	movq	%r8, %rcx
	movq	4936(%rsp), %r8         # 8-byte Reload
	movq	4992(%rsp), %r9         # 8-byte Reload
	movq	5584(%rsp), %r10        # 8-byte Reload
	movq	%r10, (%rsp)
	callq	trace_logger_log_int
	movq	4976(%rsp), %rdi        # 8-byte Reload
	movq	4920(%rsp), %rsi        # 8-byte Reload
	movq	4912(%rsp), %rdx        # 8-byte Reload
	movq	4928(%rsp), %rcx        # 8-byte Reload
	movq	4944(%rsp), %r8         # 8-byte Reload
	movl	4968(%rsp), %r9d        # 4-byte Reload
	movl	$1, (%rsp)
	callq	trace_logger_log0
	movq	5000(%rsp), %rdi        # 8-byte Reload
	movq	4992(%rsp), %rsi        # 8-byte Reload
	movq	4992(%rsp), %rdx        # 8-byte Reload
	movq	5000(%rsp), %rcx        # 8-byte Reload
	movq	4984(%rsp), %r8         # 8-byte Reload
	movq	4992(%rsp), %r9         # 8-byte Reload
	movq	5008(%rsp), %r10        # 8-byte Reload
	movq	%r10, (%rsp)
	callq	trace_logger_log_int
	movq	4992(%rsp), %rcx        # 8-byte Reload
	movl	4972(%rsp), %eax        # 4-byte Reload
	movq	%rcx, 4864(%rsp)        # 8-byte Spill
	movl	%eax, 4860(%rsp)        # 4-byte Spill
.LBB0_14:                               #   Parent Loop BB0_1 Depth=1
                                        #     Parent Loop BB0_11 Depth=2
                                        #       Parent Loop BB0_12 Depth=3
                                        #         Parent Loop BB0_13 Depth=4
                                        # =>        This Inner Loop Header: Depth=5
	movl	4860(%rsp), %eax        # 4-byte Reload
	movq	4864(%rsp), %rcx        # 8-byte Reload
	movabsq	$1, %rdx
	leaq	.L.str979, %r8
	movabsq	$0, %rsi
	leaq	.L.str980, %rdi
	movabsq	$2, %r9
	leaq	.L.str977, %r10
	leaq	.L.str978, %r11
	movabsq	$3, %rbx
	leaq	.L.str975, %r14
	leaq	.L.str976, %r15
	movabsq	$51, %r12
	leaq	.L.str972, %r13
	leaq	.L.str973, %rbp
	movq	%rcx, 4848(%rsp)        # 8-byte Spill
	leaq	.L.str974, %rcx
	movl	%eax, 4844(%rsp)        # 4-byte Spill
	movl	$1, %eax
	movq	%rcx, 4832(%rsp)        # 8-byte Spill
	movabsq	$19134, %rcx            # imm = 0x4ABE
	movq	%rcx, 4824(%rsp)        # 8-byte Spill
	leaq	.L.str970, %rcx
	movq	%rcx, 4816(%rsp)        # 8-byte Spill
	leaq	.L.str971, %rcx
	movq	%rcx, 4808(%rsp)        # 8-byte Spill
	movabsq	$64, %rcx
	movq	%rcx, 4800(%rsp)        # 8-byte Spill
	leaq	.L.str968, %rcx
	movq	%rcx, 4792(%rsp)        # 8-byte Spill
	leaq	.L.str969, %rcx
	movq	%rcx, 4784(%rsp)        # 8-byte Spill
	leaq	.L.str966, %rcx
	movq	%rcx, 4776(%rsp)        # 8-byte Spill
	leaq	.L.str967, %rcx
	movq	%rcx, 4768(%rsp)        # 8-byte Spill
	leaq	.L.str963, %rcx
	movq	%rcx, 4760(%rsp)        # 8-byte Spill
	leaq	.L.str964, %rcx
	movq	%rcx, 4752(%rsp)        # 8-byte Spill
	leaq	.L.str965, %rcx
	movq	%rcx, 4744(%rsp)        # 8-byte Spill
	movabsq	$46, %rcx
	movq	%rcx, 4736(%rsp)        # 8-byte Spill
	leaq	.L.str961, %rcx
	movq	%rcx, 4728(%rsp)        # 8-byte Spill
	leaq	.L.str962, %rcx
	movq	%rcx, 4720(%rsp)        # 8-byte Spill
	leaq	.L.str959, %rcx
	movq	%rcx, 4712(%rsp)        # 8-byte Spill
	leaq	.L.str960, %rcx
	movq	%rcx, 4704(%rsp)        # 8-byte Spill
	leaq	.L.str957, %rcx
	movq	%rcx, 4696(%rsp)        # 8-byte Spill
	leaq	.L.str958, %rcx
	movq	%rcx, 4688(%rsp)        # 8-byte Spill
	leaq	.L.str954, %rcx
	movq	%rcx, 4680(%rsp)        # 8-byte Spill
	leaq	.L.str955, %rcx
	movq	%rcx, 4672(%rsp)        # 8-byte Spill
	leaq	.L.str956, %rcx
	movq	%rcx, 4664(%rsp)        # 8-byte Spill
	movabsq	$8, %rcx
	movq	%rcx, 4656(%rsp)        # 8-byte Spill
	movabsq	$32, %rcx
	movq	%rcx, 4648(%rsp)        # 8-byte Spill
	leaq	.L.str952, %rcx
	movq	%rcx, 4640(%rsp)        # 8-byte Spill
	leaq	.L.str953, %rcx
	movq	%rcx, 4632(%rsp)        # 8-byte Spill
	leaq	.L.str950, %rcx
	movq	%rcx, 4624(%rsp)        # 8-byte Spill
	leaq	.L.str951, %rcx
	movq	%rcx, 4616(%rsp)        # 8-byte Spill
	leaq	.L.str948, %rcx
	movq	%rcx, 4608(%rsp)        # 8-byte Spill
	leaq	.L.str949, %rcx
	movq	%rcx, 4600(%rsp)        # 8-byte Spill
	movabsq	$53, %rcx
	movq	%rcx, 4592(%rsp)        # 8-byte Spill
	leaq	.L.str945, %rcx
	movq	%rcx, 4584(%rsp)        # 8-byte Spill
	leaq	.L.str946, %rcx
	movq	%rcx, 4576(%rsp)        # 8-byte Spill
	leaq	.L.str947, %rcx
	movq	%rcx, 4568(%rsp)        # 8-byte Spill
	leaq	.L.str943, %rcx
	movq	%rcx, 4560(%rsp)        # 8-byte Spill
	leaq	.L.str944, %rcx
	movq	%rcx, 4552(%rsp)        # 8-byte Spill
	leaq	.L.str941, %rcx
	movq	%rcx, 4544(%rsp)        # 8-byte Spill
	leaq	.L.str942, %rcx
	movq	%rcx, 4536(%rsp)        # 8-byte Spill
	leaq	.L.str939, %rcx
	movq	%rcx, 4528(%rsp)        # 8-byte Spill
	leaq	.L.str940, %rcx
	movq	%rcx, 4520(%rsp)        # 8-byte Spill
	movabsq	$52, %rcx
	movq	%rcx, 4512(%rsp)        # 8-byte Spill
	leaq	.L.str936, %rcx
	movq	%rcx, 4504(%rsp)        # 8-byte Spill
	leaq	.L.str937, %rcx
	movq	%rcx, 4496(%rsp)        # 8-byte Spill
	leaq	.L.str938, %rcx
	movq	%rcx, 4488(%rsp)        # 8-byte Spill
	movabsq	$12, %rcx
	movq	%rcx, 4480(%rsp)        # 8-byte Spill
	leaq	.L.str934, %rcx
	movq	%rcx, 4472(%rsp)        # 8-byte Spill
	leaq	.L.str935, %rcx
	movq	%rcx, 4464(%rsp)        # 8-byte Spill
	leaq	.L.str932, %rcx
	movq	%rcx, 4456(%rsp)        # 8-byte Spill
	leaq	.L.str933, %rcx
	movq	%rcx, 4448(%rsp)        # 8-byte Spill
	leaq	.L.str929, %rcx
	movq	%rcx, 4440(%rsp)        # 8-byte Spill
	leaq	.L.str930, %rcx
	movq	%rcx, 4432(%rsp)        # 8-byte Spill
	leaq	.L.str931, %rcx
	movq	%rcx, 4424(%rsp)        # 8-byte Spill
	movabsq	$27, %rcx
	movq	%rcx, 4416(%rsp)        # 8-byte Spill
	leaq	.L.str927, %rcx
	movq	%rcx, 4408(%rsp)        # 8-byte Spill
	leaq	.L.str928, %rcx
	movq	%rcx, 4400(%rsp)        # 8-byte Spill
	leaq	orig, %rcx
	movq	%rcx, 4392(%rsp)        # 8-byte Spill
	leaq	.L.str925, %rcx
	movq	%rcx, 4384(%rsp)        # 8-byte Spill
	leaq	.L.str926, %rcx
	movq	%rcx, 4376(%rsp)        # 8-byte Spill
	leaq	.L.str923, %rcx
	movq	%rcx, 4368(%rsp)        # 8-byte Spill
	leaq	.L.str924, %rcx
	movq	%rcx, 4360(%rsp)        # 8-byte Spill
	leaq	.L.str921, %rcx
	movq	%rcx, 4352(%rsp)        # 8-byte Spill
	leaq	.L.str922, %rcx
	movq	%rcx, 4344(%rsp)        # 8-byte Spill
	leaq	.L.str918, %rcx
	movq	%rcx, 4336(%rsp)        # 8-byte Spill
	leaq	.L.str919, %rcx
	movq	%rcx, 4328(%rsp)        # 8-byte Spill
	leaq	.L.str920, %rcx
	movq	%rcx, 4320(%rsp)        # 8-byte Spill
	movabsq	$29, %rcx
	movq	%rcx, 4312(%rsp)        # 8-byte Spill
	leaq	.L.str916, %rcx
	movq	%rcx, 4304(%rsp)        # 8-byte Spill
	leaq	.L.str917, %rcx
	movq	%rcx, 4296(%rsp)        # 8-byte Spill
	leaq	.L.str914, %rcx
	movq	%rcx, 4288(%rsp)        # 8-byte Spill
	leaq	.L.str915, %rcx
	movq	%rcx, 4280(%rsp)        # 8-byte Spill
	leaq	.L.str912, %rcx
	movq	%rcx, 4272(%rsp)        # 8-byte Spill
	leaq	.L.str913, %rcx
	movq	%rcx, 4264(%rsp)        # 8-byte Spill
	leaq	.L.str909, %rcx
	movq	%rcx, 4256(%rsp)        # 8-byte Spill
	leaq	.L.str910, %rcx
	movq	%rcx, 4248(%rsp)        # 8-byte Spill
	leaq	.L.str911, %rcx
	movq	%rcx, 4240(%rsp)        # 8-byte Spill
	leaq	.L.str907, %rcx
	movq	%rcx, 4232(%rsp)        # 8-byte Spill
	leaq	.L.str908, %rcx
	movq	%rcx, 4224(%rsp)        # 8-byte Spill
	leaq	.L.str905, %rcx
	movq	%rcx, 4216(%rsp)        # 8-byte Spill
	leaq	.L.str906, %rcx
	movq	%rcx, 4208(%rsp)        # 8-byte Spill
	leaq	.L.str902, %rcx
	movq	%rcx, 4200(%rsp)        # 8-byte Spill
	leaq	.L.str903, %rcx
	movq	%rcx, 4192(%rsp)        # 8-byte Spill
	leaq	.L.str904, %rcx
	movq	%rcx, 4184(%rsp)        # 8-byte Spill
	leaq	.L.str900, %rcx
	movq	%rcx, 4176(%rsp)        # 8-byte Spill
	leaq	.L.str901, %rcx
	movq	%rcx, 4168(%rsp)        # 8-byte Spill
	leaq	filter, %rcx
	movq	%rcx, 4160(%rsp)        # 8-byte Spill
	leaq	.L.str898, %rcx
	movq	%rcx, 4152(%rsp)        # 8-byte Spill
	leaq	.L.str899, %rcx
	movq	%rcx, 4144(%rsp)        # 8-byte Spill
	leaq	.L.str896, %rcx
	movq	%rcx, 4136(%rsp)        # 8-byte Spill
	leaq	.L.str897, %rcx
	movq	%rcx, 4128(%rsp)        # 8-byte Spill
	leaq	.L.str894, %rcx
	movq	%rcx, 4120(%rsp)        # 8-byte Spill
	leaq	.L.str895, %rcx
	movq	%rcx, 4112(%rsp)        # 8-byte Spill
	leaq	.L.str891, %rcx
	movq	%rcx, 4104(%rsp)        # 8-byte Spill
	leaq	.L.str892, %rcx
	movq	%rcx, 4096(%rsp)        # 8-byte Spill
	leaq	.L.str893, %rcx
	movq	%rcx, 4088(%rsp)        # 8-byte Spill
	leaq	.L.str889, %rcx
	movq	%rcx, 4080(%rsp)        # 8-byte Spill
	leaq	.L.str890, %rcx
	movq	%rcx, 4072(%rsp)        # 8-byte Spill
	leaq	.L.str887, %rcx
	movq	%rcx, 4064(%rsp)        # 8-byte Spill
	leaq	.L.str888, %rcx
	movq	%rcx, 4056(%rsp)        # 8-byte Spill
	leaq	.L.str885, %rcx
	movq	%rcx, 4048(%rsp)        # 8-byte Spill
	leaq	.L.str886, %rcx
	movq	%rcx, 4040(%rsp)        # 8-byte Spill
	leaq	.L.str882, %rcx
	movq	%rcx, 4032(%rsp)        # 8-byte Spill
	leaq	.L.str883, %rcx
	movq	%rcx, 4024(%rsp)        # 8-byte Spill
	leaq	.L.str884, %rcx
	movq	%rcx, 4016(%rsp)        # 8-byte Spill
	leaq	.L.str880, %rcx
	movq	%rcx, 4008(%rsp)        # 8-byte Spill
	leaq	.L.str881, %rcx
	movq	%rcx, 4000(%rsp)        # 8-byte Spill
	leaq	.L.str878, %rcx
	movq	%rcx, 3992(%rsp)        # 8-byte Spill
	leaq	.L.str879, %rcx
	movq	%rcx, 3984(%rsp)        # 8-byte Spill
	leaq	.L.str876, %rcx
	movq	%rcx, 3976(%rsp)        # 8-byte Spill
	leaq	.L.str877, %rcx
	movq	%rcx, 3968(%rsp)        # 8-byte Spill
	movabsq	$-1, %rcx
	movq	%rcx, 3960(%rsp)        # 8-byte Spill
	leaq	.L.str873, %rcx
	movq	%rcx, 3952(%rsp)        # 8-byte Spill
	leaq	.L.str874, %rcx
	movq	%rcx, 3944(%rsp)        # 8-byte Spill
	leaq	.L.str875, %rcx
	movq	%rcx, 3936(%rsp)        # 8-byte Spill
	movabsq	$48, %rcx
	movq	%rcx, 3928(%rsp)        # 8-byte Spill
	leaq	.L.str871, %rcx
	movq	%rcx, 3920(%rsp)        # 8-byte Spill
	leaq	.L.str872, %rcx
	movq	%rcx, 3912(%rsp)        # 8-byte Spill
	leaq	.L.str869, %rcx
	movq	%rcx, 3904(%rsp)        # 8-byte Spill
	leaq	.L.str870, %rcx
	movq	%rcx, 3896(%rsp)        # 8-byte Spill
	leaq	.L.str867, %rcx
	movq	%rcx, 3888(%rsp)        # 8-byte Spill
	leaq	.L.str868, %rcx
	movq	%rcx, 3880(%rsp)        # 8-byte Spill
	leaq	.L.str864, %rcx
	movq	%rcx, 3872(%rsp)        # 8-byte Spill
	leaq	.L.str865, %rcx
	movq	%rcx, 3864(%rsp)        # 8-byte Spill
	leaq	.L.str866, %rcx
	.loc	1 52 0                  # stencil.c:52:0
.Ltmp52:
	movq	%rcx, 3856(%rsp)        # 8-byte Spill
	movq	3960(%rsp), %rcx        # 8-byte Reload
	movq	%rdi, 3848(%rsp)        # 8-byte Spill
	movq	%rcx, %rdi
	movq	3872(%rsp), %rcx        # 8-byte Reload
	movq	%rsi, 3840(%rsp)        # 8-byte Spill
	movq	%rcx, %rsi
	movq	3864(%rsp), %rcx        # 8-byte Reload
	movq	%rdx, 3832(%rsp)        # 8-byte Spill
	movq	%rcx, %rdx
	movq	3856(%rsp), %rcx        # 8-byte Reload
	movq	%r8, 3824(%rsp)         # 8-byte Spill
	movq	3928(%rsp), %r8         # 8-byte Reload
	movq	%r9, 3816(%rsp)         # 8-byte Spill
	movl	%eax, %r9d
	movl	$1, (%rsp)
	movl	%eax, 3812(%rsp)        # 4-byte Spill
	movq	%r15, 3800(%rsp)        # 8-byte Spill
	movq	%r12, 3792(%rsp)        # 8-byte Spill
	movq	%r14, 3784(%rsp)        # 8-byte Spill
	movq	%r13, 3776(%rsp)        # 8-byte Spill
	movq	%rbp, 3768(%rsp)        # 8-byte Spill
	movq	%rbx, 3760(%rsp)        # 8-byte Spill
	movq	%r10, 3752(%rsp)        # 8-byte Spill
	movq	%r11, 3744(%rsp)        # 8-byte Spill
	callq	trace_logger_log0
	movq	3816(%rsp), %rdi        # 8-byte Reload
	movq	4800(%rsp), %rsi        # 8-byte Reload
	movq	3840(%rsp), %rdx        # 8-byte Reload
	movq	3832(%rsp), %rcx        # 8-byte Reload
	movq	3888(%rsp), %r8         # 8-byte Reload
	movq	3832(%rsp), %r9         # 8-byte Reload
	movq	3880(%rsp), %r10        # 8-byte Reload
	movq	%r10, (%rsp)
	callq	trace_logger_log_int
	movq	3832(%rsp), %rdi        # 8-byte Reload
	movq	4800(%rsp), %rsi        # 8-byte Reload
	movq	3840(%rsp), %rdx        # 8-byte Reload
	movq	3840(%rsp), %rcx        # 8-byte Reload
	movq	3904(%rsp), %r8         # 8-byte Reload
	movq	3832(%rsp), %r9         # 8-byte Reload
	movq	3896(%rsp), %r10        # 8-byte Reload
	movq	%r10, (%rsp)
	callq	trace_logger_log_int
	movq	4824(%rsp), %rdi        # 8-byte Reload
	movq	4800(%rsp), %rsi        # 8-byte Reload
	movq	4848(%rsp), %rdx        # 8-byte Reload
	movq	3832(%rsp), %rcx        # 8-byte Reload
	movq	3920(%rsp), %r8         # 8-byte Reload
	movq	3840(%rsp), %r9         # 8-byte Reload
	movq	3912(%rsp), %r10        # 8-byte Reload
	movq	%r10, (%rsp)
	callq	trace_logger_log_int
	movq	3960(%rsp), %rdi        # 8-byte Reload
